(dp1
S'output'
p2
S'missing "pass" in view'
p3
sS'layer'
p4
S'ParserContainer'
p5
sS'code'
p6
S'response.write(\'<html>\\n  <head>\\n    <meta charset="utf-8">\\n    <meta http-equiv="X-UA-Compatible" content="IE=edge,chrome=1">\\n    <meta name="viewport" content="width=device-width, initial-scale=1.0" />\\n    <meta name="apple-mobile-web-app-capable" content="yes" />\\n    <link href="\', escape=False)\nresponse.write(URL(\'static\',\'css/custom.css\'))\nresponse.write(\'" rel="stylesheet" type="text/css"/>\\n    <link href="\', escape=False)\nresponse.write(URL(\'static\',\'css/stupid.css\'))\nresponse.write(\'" rel="stylesheet" type="text/css"/>\\n    <link href="\', escape=False)\nresponse.write(URL(\'static\',\'css/calendar.css\'))\nresponse.write(\'" rel="stylesheet" type="text/css"/>\\n    <link href="\', escape=False)\nresponse.write(URL(\'static\',\'css/myapp.css\'))\nresponse.write(\'" rel="stylesheet" type="text/css"/>\\n    <link href="\', escape=False)\nresponse.write(URL(\'static\',\'css/web2py.css\'))\nresponse.write(\'" rel="stylesheet" type="text/css"/>\\n    <link rel="stylesheet" href="\', escape=False)\nresponse.write(URL(\'static\', \'font-awesome-4.6.3/css/font-awesome.min.css\'))\nresponse.write(\'">\\n    \', escape=False)\nresponse.write(\'<script type="text/javascript"><!--\\n    // These variables are used by the web2py_ajax_init function in web2py_ajax.js (which is loaded below).\\n    var w2p_ajax_confirm_message = "\', escape=False)\nresponse.write(T(\'Are you sure you want to delete this object?\'))\nresponse.write(\'";\\n    var w2p_ajax_disable_with_message = "\', escape=False)\nresponse.write(T(\'Working...\'))\nresponse.write(\'";\\n    var w2p_ajax_date_format = "\', escape=False)\nresponse.write(T(\'%Y-%m-%d\'))\nresponse.write(\'";\\n    var w2p_ajax_datetime_format = "\', escape=False)\nresponse.write(T(\'%Y-%m-%d %H:%M:%S\'))\nresponse.write(\'";\\n    var ajax_error_500 = \\\'\', escape=False)\nresponse.write(T.M(\'An error occured, please [[reload %s]] the page\') % URL(args=request.args, vars=request.get_vars))\nresponse.write("\'\\n    //--></script>\\n", escape=False)\nresponse.files.insert(0,URL(\'static\',\'js/jquery.js\'))\nresponse.files.insert(1,URL(\'static\',\'css/calendar.css\'))\nresponse.files.insert(2,URL(\'static\',\'js/calendar.js\'))\nresponse.files.insert(3,URL(\'static\',\'js/web2py.js\'))\nresponse.include_meta()\nresponse.include_files()\nresponse.write(\'\\n\', escape=False)\nresponse.write(\'\\n  </head>\\n  <body class="black">\\n    \', escape=False)\nif response.flash:\n    response.write(\'\\n    <div class="w2p_flash">\\n      \', escape=False)\n    response.write(response.flash)\n    response.write(\'\\n    </div>\\n    \', escape=False)\n    pass\nresponse.write(\'\\n    <header class="black padded">\\n      <div class="container middle max900">\\n        <div class="fill middle">\\n          <label class="ham padded fa fa-bars" for="menu"></label>\\n          <div class="burger accordion">\\n            <input type="checkbox" id="menu"/>\\n            \', escape=False)\nresponse.write(MENU(response.menu,_class=\'menu\'))\nresponse.write(\'\\n            <ul class="menu right">\\n              <li>\\n                \', escape=False)\nresponse.write(auth.navbar(mode=\'dropdown\'))\nresponse.write(\'\\n              </li>\\n            </ul>\\n          </div>\\n        </div>\\n      </div>\\n    </header>\\n    <main class="white">\\n      \', escape=False)\nresponse.write(\'\\n\\n\', escape=False)\nresponse.write(\'\\n<script src="\', escape=False)\nresponse.write(URL(\'static\', \'js/vue.js\'))\nresponse.write(\'"></script>\\n<script src="https://checkout.stripe.com/checkout.js"></script>\\n<script>\\n    var products_url = "\', escape=False)\nresponse.write(URL(\'default\', \'get_products\'))\nresponse.write(\'";\\n    var purchase_url = "\', escape=False)\nresponse.write(URL(\'default\', \'purchase\', hmac_key=session.hmac_key))\nresponse.write(\'"\\n</script>\\n\', escape=False)\nresponse.write(\'\\n\\n\\n<div class="main_content">\\n    \', escape=False)\nif auth.is_logged_in():\n    test\n    response.write(\'\\n    <div id="vue-div" style="display:none">\\n\\n        <div class="control_bar container">\\n            <div class="search_div threequarters">\\n                <span v-if="page==\\\'prod\\\'">\\n                    <input class="search_input" v-model="product_search"/>\\n                    <button class="btn" v-on:click="do_search"><i class="fa fa-search fa-lg"></i></button>\\n                </span>\\n                <span v-if="page==\\\'cart\\\'" class="page_title"><i class="fa fa-shopping-cart"></i> Your Shopping Cart</span>\\n            </div>\\n            <div class="shopping_button quarter">\\n                <span v-if="page==\\\'prod\\\'">\\n                    <button class="btn orange" v-on:click="goto(\\\'cart\\\')">\\n                        <i class="fa fa-lg fa-shopping-cart"></i> ${cart_size}\\n                    </button>\\n                </span>\\n                <span v-if="page==\\\'cart\\\'">\\n                    <button class="btn" v-on:click="goto(\\\'prod\\\')"> Continue shopping </button>\\n                </span>\\n            </div>\\n        </div>\\n\\n        <div v-if="page==\\\'prod\\\'" id="products_list">\\n            <div v-for="product in products" class="container">\\n                <div class="third prod_image">\\n                    <img v-bind:src="product.image_url" width="100%" class="product_image"/>\\n                </div>\\n                <div class="twothirds product_info">\\n                    <div class="product_name"><h2>${product.product_name}</h2></div>\\n                    <div class="product_quantity_price">\\n                        <span class="product_price">$ ${product.price}</span>\\n                        <span class="product_quantity">Quantity in stock: ${product.quantity}</span>\\n                        <span class="buy_buttons">\\n                            <button class="btn" v-on:click="inc_desired_quantity(product._idx, 1)"><i class="fa fa-plus"></i></button>\\n                            <span class="desired_quantity">${product.desired_quantity}</span>\\n                            <button class="btn" v-on:click="inc_desired_quantity(product._idx, -1)"><i class="fa fa-minus"></i></button>\\n                            <button class="btn red" v-on:click="buy_product(product._idx)"><i class="fa fa-lg fa-shopping-cart"></i> Buy</button>\\n                        </span>\\n                    </div>\\n                    <div class="product_description">\\n                        <p>${product.description}</p>\\n                    </div>\\n\\n                </div>\\n\\n            </div>\\n        </div>\\n\\n        <div v-if="page==\\\'cart\\\'" id="cart_list">\\n            <div v-if="cart.length == 0" class="container">\\n                <div class="cart_empty_msg">\\n                    Your cart is empty\\n                </div>\\n            </div>\\n            <div v-for="product in cart" class="container">\\n                <div class="col-md-3 prod_image third">\\n                    <img v-bind:src="product.image_url" width="100%" class="product_image"/>\\n                </div>\\n                <div class="col-md-10 product_info twothirds">\\n                    <div class="product_name"><h2>${product.product_name}</h2></div>\\n                    <div class="product_quantity_price">\\n                        <span class="product_price">$ ${product.price}</span>\\n                        <span class="product_quantity">Quantity in stock: ${product.quantity}</span>\\n                        <span class="buy_buttons">\\n                            <button class="btn" v-on:click="inc_cart_quantity(product._idx, 1)"><i class="fa fa-plus"></i></button>\\n                            <span class="desired_quantity">${product.cart_quantity}</span>\\n                            <button class="btn" v-on:click="inc_cart_quantity(product._idx, -1)"><i class="fa fa-minus"></i></button>\\n                        </span>\\n                    </div>\\n                    <div class="product_description">\\n                        <p>${product.description}</p>\\n                    </div>\\n                </div>\\n            </div>\\n            <div v-if="cart.length > 0" class="total_price">\\n                Your total price: $ ${cart_total}\\n                <button class="btn blue" v-on:click="pay()"><i class="fa fa-lg fa-credit-card"></i> Pay</button>\\n            </div>\\n        </div>\\n\\n    </div>\\n\\n</div>\\n\\n<script src="\', escape=False)\n    response.write(URL(\'static\', \'js/default_index.js\'))\n    response.write(\'"></script>\\n\', escape=False)\n    response.write(\'\\n    </main>\\n    <footer class="black">\\n      <div class="silver center padded social">\\n        <a class="fa fa-facebook" href="https://www.facebook.com/sharer/sharer.php?u={url}"></a>\\n        <a class="fa fa-twitter" href="https://twitter.com/home?status={url}"></a>\\n        <a class="fa fa-google" href="https://plus.google.com/share?url={url}"></a>\\n      </div>\\n      <div class="container padded max900">\\n        <div class="fill">\\n          Copyright @ 2016\\n        </div>\\n      </div>\\n    </footer>\\n  </body>\\n  <script src="\', escape=False)\n    response.write(URL(\'static\',\'js/sugar.min.js\'))\n    response.write(\'"></script>\\n  <script src="\', escape=False)\n    response.write(URL(\'static\',\'js/marked.min.js\'))\n    response.write(\'"></script>\\n  <script src="\', escape=False)\n    response.write(URL(\'static\',\'js/vue.min.js\'))\n    response.write(\'"></script>\\n  \', escape=False)\n    response.write("\\n  <script>\\n    jQuery(\'.social a\').each(function(){var t=jQuery(this); t.attr(\'href\',t.attr(\'href\').replace(\'{url}\',encodeURIComponent(window.location.href)));});\\n  </script>\\n</html>\\n", escape=False)'
p7
sS'snapshot'
p8
(dp9
S'exception'
p10
(dp11
S'__module__'
p12
S"'gluon.rocket'"
p13
sS'__getslice__'
p14
S"<method-wrapper '__getslice__' of SocketClosed object>"
p15
sS'__str__'
p16
S"<method-wrapper '__str__' of SocketClosed object>"
p17
sS'__reduce__'
p18
S'<built-in method __reduce__ of SocketClosed object>'
p19
sS'__dict__'
p20
S'{}'
p21
sS'__sizeof__'
p22
S'<built-in method __sizeof__ of SocketClosed object>'
p23
sS'__weakref__'
p24
S'None'
p25
sS'__init__'
p26
S"<method-wrapper '__init__' of SocketClosed object>"
p27
sS'__setattr__'
p28
S"<method-wrapper '__setattr__' of SocketClosed object>"
p29
sS'__reduce_ex__'
p30
S'<built-in method __reduce_ex__ of SocketClosed object>'
p31
sS'__new__'
p32
S'<built-in method __new__ of type object>'
p33
sS'__format__'
p34
S'<built-in method __format__ of SocketClosed object>'
p35
sS'__class__'
p36
S"<class 'gluon.rocket.SocketClosed'>"
p37
sS'__doc__'
p38
S"'Exception for when a socket is closed by the client.'"
p39
sS'__getitem__'
p40
S"<method-wrapper '__getitem__' of SocketClosed object>"
p41
sS'__setstate__'
p42
S'<built-in method __setstate__ of SocketClosed object>'
p43
sS'__getattribute__'
p44
S"<method-wrapper '__getattribute__' of SocketClosed object>"
p45
sS'args'
p46
S"('Client closed socket.',)"
p47
sS'__subclasshook__'
p48
S'<built-in method __subclasshook__ of type object>'
p49
sS'__unicode__'
p50
S'<built-in method __unicode__ of SocketClosed object>'
p51
sS'__delattr__'
p52
S"<method-wrapper '__delattr__' of SocketClosed object>"
p53
sS'__repr__'
p54
S"<method-wrapper '__repr__' of SocketClosed object>"
p55
sS'__hash__'
p56
S"<method-wrapper '__hash__' of SocketClosed object>"
p57
ssS'evalue'
p58
S'Client closed socket.'
p59
sS'frames'
p60
(lp61
(dp62
S'file'
p63
S'/home/allie/Documents/F16/CS183/web2py/gluon/rocket.py'
p64
sS'dump'
p65
(dp66
S'self'
p67
S'<WSGIWorker(Thread-6, started daemon 139718681102080)>'
p68
sS'conn'
p69
S'<gluon.rocket.Connection object>'
p70
sS'self.run_app'
p71
S'<bound method WSGIWorker.run_app of <WSGIWorker(Thread-6, started daemon 139718681102080)>>'
p72
ssS'lnum'
p73
I1337
sS'lines'
p74
(dp75
I1332
S'            # Enter connection serve loop'
p76
sI1333
S'            while True:'
p77
sI1334
S'                if __debug__:'
p78
sI1335
S"                    self.err_log.debug('Serving a request')"
p79
sI1336
S'                try:'
p80
sI1337
S'                    self.run_app(conn)'
p81
sI1338
S'                except:'
p82
sI1339
S'                    exc = sys.exc_info()'
p83
sI1340
S'                    handled = self._handleError(*exc)'
p84
sI1341
S'                    if handled:'
p85
ssS'call'
p86
S'(self=<WSGIWorker(Thread-6, started daemon 139718681102080)>)'
p87
sS'func'
p88
S'run'
p89
sa(dp90
g63
S'/home/allie/Documents/F16/CS183/web2py/gluon/rocket.py'
p91
sg65
(dp92
S'self'
p93
S'<WSGIWorker(Thread-6, started daemon 139718681102080)>'
p94
sS'self.environ'
p95
S'{\'HTTP_ACCEPT\': \'text/html,application/xhtml+xml,application/xml;q=0.9,image/webp,*/*;q=0.8\', \'HTTP_ACCEPT_ENCODING\': \'gzip, deflate, sdch, br\', \'HTTP_ACCEPT_LANGUAGE\': \'en-US,en;q=0.8\', \'HTTP_CACHE_CONTROL\': \'max-age=0\', \'HTTP_CONNECTION\': \'keep-alive\', \'HTTP_COOKIE\': \'session_id_web2py_start_2016="2:9184be01-f0d6-4b...in=127.0.0.1-35694fe4-15f3-41dd-b8e5-090c54fea21d\', \'HTTP_HOST\': \'127.0.0.1:8000\', \'HTTP_REFERER\': \'http://127.0.0.1:8000/SlugDash/default/user/register?_next=/SlugDash/default/index\', \'HTTP_UPGRADE_INSECURE_REQUESTS\': \'1\', \'HTTP_USER_AGENT\': \'Mozilla/5.0 (X11; Linux x86_64) AppleWebKit/537....L, like Gecko) Chrome/54.0.2840.100 Safari/537.36\', ...}'
p96
sS'sock_file'
p97
S'<socket._fileobject object>'
p98
sS'environ'
p99
S'undefined'
p100
sS'self.build_environ'
p101
S'<bound method WSGIWorker.build_environ of <WSGIWorker(Thread-6, started daemon 139718681102080)>>'
p102
sS'conn'
p103
S'<gluon.rocket.Connection object>'
p104
ssg73
I1830
sg74
(dp105
I1825
S'        else:'
p106
sI1826
S'            sock_file = conn.makefile(BUF_SIZE)'
p107
sI1827
S''
sI1828
S'        try:'
p108
sI1829
S'            # Read the headers and build our WSGI environment'
p109
sI1830
S'            self.environ = environ = self.build_environ(sock_file, conn)'
p110
sI1831
S''
sI1832
S'            # Handle 100 Continue'
p111
sI1833
S"            if environ.get('HTTP_EXPECT', '') == '100-continue':"
p112
sI1834
S"                res = environ['SERVER_PROTOCOL'] + ' 100 Continue\\r\\n\\r\\n'"
p113
ssg86
S'(self=<WSGIWorker(Thread-6, started daemon 139718681102080)>, conn=<gluon.rocket.Connection object>)'
p114
sg88
S'run_app'
p115
sa(dp116
g63
S'/home/allie/Documents/F16/CS183/web2py/gluon/rocket.py'
p117
sg65
(dp118
S'sock_file'
p119
S'<socket._fileobject object>'
p120
sS'self.read_request_line'
p121
S'<bound method WSGIWorker.read_request_line of <W...orker(Thread-6, started daemon 139718681102080)>>'
p122
sS'self'
p123
S'<WSGIWorker(Thread-6, started daemon 139718681102080)>'
p124
sS'request'
p125
g100
ssg73
I1650
sg74
(dp126
I1645
S'                                      "wsgiorg.futures": executor.futures})'
p127
sI1646
S''
sI1647
S'    def build_environ(self, sock_file, conn):'
p128
sI1648
S'        """ Build the execution environment. """'
p129
sI1649
S'        # Grab the request line'
p130
sI1650
S'        request = self.read_request_line(sock_file)'
p131
sI1651
S''
sI1652
S'        # Copy the Base Environment'
p132
sI1653
S'        environ = self.base_environ.copy()'
p133
sI1654
S''
ssg86
S'(self=<WSGIWorker(Thread-6, started daemon 139718681102080)>, sock_file=<socket._fileobject object>, conn=<gluon.rocket.Connection object>)'
p134
sg88
S'build_environ'
p135
sa(dp136
g63
S'/home/allie/Documents/F16/CS183/web2py/gluon/rocket.py'
p137
sg65
(dp138
S'global SocketClosed'
p139
S"<class 'gluon.rocket.SocketClosed'>"
p140
ssg73
I1413
sg74
(dp141
I1408
S''
sI1409
S'        if not d:'
p142
sI1410
S'            if __debug__:'
p143
sI1411
S'                self.err_log.debug('
p144
sI1412
S"                    'Client did not send a recognizable request.')"
p145
sI1413
S"            raise SocketClosed('Client closed socket.')"
p146
sI1414
S''
sI1415
S'        self.request_line = d'
p147
sI1416
S''
sI1417
S"        # NOTE: I've replaced the traditional method of procedurally breaking"
p148
ssg86
S'(self=<WSGIWorker(Thread-6, started daemon 139718681102080)>, sock_file=<socket._fileobject object>)'
p149
sg88
S'read_request_line'
p150
sasS'pyver'
p151
S'Python 2.7.12: /usr/bin/python (prefix: /usr)'
p152
sS'etype'
p153
S"<class 'gluon.rocket.SocketClosed'>"
p154
sS'date'
p155
S'Sat Nov 26 19:17:01 2016'
p156
sS'locals'
p157
(dp158
S'sock_file'
p159
S'<socket._fileobject object>'
p160
sS'self'
p161
S'<WSGIWorker(Thread-6, started daemon 139718681102080)>'
p162
sS'd'
S"''"
p163
sssS'traceback'
p164
S'Traceback (most recent call last):\n  File "/home/allie/Documents/F16/CS183/web2py/gluon/rocket.py", line 1337, in run\n    self.run_app(conn)\n  File "/home/allie/Documents/F16/CS183/web2py/gluon/rocket.py", line 1830, in run_app\n    self.environ = environ = self.build_environ(sock_file, conn)\n  File "/home/allie/Documents/F16/CS183/web2py/gluon/rocket.py", line 1650, in build_environ\n    request = self.read_request_line(sock_file)\n  File "/home/allie/Documents/F16/CS183/web2py/gluon/rocket.py", line 1413, in read_request_line\n    raise SocketClosed(\'Client closed socket.\')\nSocketClosed: Client closed socket.\n'
p165
s.