(dp1
S'output'
p2
S"<type 'exceptions.AttributeError'> "
p3
sS'layer'
p4
S'/Users/kayatomic/web2py/applications/SlugDash/views/default/index.html'
p5
sS'code'
p6
S'response.write(\'<html>\\n  <head>\\n    <meta charset="utf-8">\\n    <meta http-equiv="X-UA-Compatible" content="IE=edge,chrome=1">\\n    <meta name="viewport" content="width=device-width, initial-scale=1.0" />\\n    <meta name="apple-mobile-web-app-capable" content="yes" />\\n    <link href="\', escape=False)\nresponse.write(URL(\'static\',\'css/custom.css\'))\nresponse.write(\'" rel="stylesheet" type="text/css"/>\\n    <link href="\', escape=False)\nresponse.write(URL(\'static\',\'css/stupid.css\'))\nresponse.write(\'" rel="stylesheet" type="text/css"/>\\n    <link href="\', escape=False)\nresponse.write(URL(\'static\',\'css/calendar.css\'))\nresponse.write(\'" rel="stylesheet" type="text/css"/>\\n    <link href="\', escape=False)\nresponse.write(URL(\'static\',\'css/myapp.css\'))\nresponse.write(\'" rel="stylesheet" type="text/css"/>\\n    <link href="\', escape=False)\nresponse.write(URL(\'static\',\'css/web2py.css\'))\nresponse.write(\'" rel="stylesheet" type="text/css"/>\\n    <link rel="stylesheet" href="\', escape=False)\nresponse.write(URL(\'static\', \'font-awesome-4.6.3/css/font-awesome.min.css\'))\nresponse.write(\'">\\n    \', escape=False)\nresponse.write(\'<script type="text/javascript"><!--\\n    // These variables are used by the web2py_ajax_init function in web2py_ajax.js (which is loaded below).\\n    var w2p_ajax_confirm_message = "\', escape=False)\nresponse.write(T(\'Are you sure you want to delete this object?\'))\nresponse.write(\'";\\n    var w2p_ajax_disable_with_message = "\', escape=False)\nresponse.write(T(\'Working...\'))\nresponse.write(\'";\\n    var w2p_ajax_date_format = "\', escape=False)\nresponse.write(T(\'%Y-%m-%d\'))\nresponse.write(\'";\\n    var w2p_ajax_datetime_format = "\', escape=False)\nresponse.write(T(\'%Y-%m-%d %H:%M:%S\'))\nresponse.write(\'";\\n    var ajax_error_500 = \\\'\', escape=False)\nresponse.write(T.M(\'An error occured, please [[reload %s]] the page\') % URL(args=request.args, vars=request.get_vars))\nresponse.write("\'\\n    //--></script>\\n", escape=False)\nresponse.files.insert(0,URL(\'static\',\'js/jquery.js\'))\nresponse.files.insert(1,URL(\'static\',\'css/calendar.css\'))\nresponse.files.insert(2,URL(\'static\',\'js/calendar.js\'))\nresponse.files.insert(3,URL(\'static\',\'js/web2py.js\'))\nresponse.include_meta()\nresponse.include_files()\nresponse.write(\'\\n\', escape=False)\nresponse.write(\'\\n  </head>\\n  <body class="black">\\n    \', escape=False)\nif response.flash:\n    response.write(\'\\n    <div class="w2p_flash">\\n      \', escape=False)\n    response.write(response.flash)\n    response.write(\'\\n    </div>\\n    \', escape=False)\n    pass\nresponse.write(\'\\n    <header class="black padded">\\n      <div class="container middle max900">\\n        <div class="fill middle">\\n          <label class="ham padded fa fa-bars" for="menu"></label>\\n          <div class="burger accordion">\\n            <input type="checkbox" id="menu"/>\\n            \', escape=False)\nresponse.write(MENU(response.menu,_class=\'menu\'))\nresponse.write(\'\\n            <ul class="menu right">\\n              <li>\\n                \', escape=False)\nresponse.write(auth.navbar(mode=\'dropdown\'))\nresponse.write(\'\\n              </li>\\n            </ul>\\n          </div>\\n        </div>\\n      </div>\\n    </header>\\n    <main class="white">\\n      \', escape=False)\nresponse.write(\'\\n\\n\', escape=False)\nresponse.write(\'\\n<script src="\', escape=False)\nresponse.write(URL(\'static\', \'js/vue.js\'))\nresponse.write(\'"></script>\\n<script src="https://checkout.stripe.com/checkout.js"></script>\\n<script>\\n    var products_url = "\', escape=False)\nresponse.write(URL(\'default\', \'get_products\'))\nresponse.write(\'";\\n    var purchase_url = "\', escape=False)\nresponse.write(URL(\'default\', \'purchase\', hmac_key=session.hmac_key))\nresponse.write(\'"\\n</script>\\n\', escape=False)\nresponse.write(\'\\n\\n<h2>\', escape=False)\nresponse.write(auth.user.membership)\nresponse.write(\'</h2>\\n\\n<div class="main_content">\\n    <div id="vue-div" style="display:none">\\n        <div class="control_bar container">\\n            <div class="search_div threequarters">\\n                <span v-if="page==\\\'prod\\\'">\\n                    <input class="search_input" v-model="product_search"/>\\n                    <button class="btn" v-on:click="do_search"><i class="fa fa-search fa-lg"></i></button>\\n                </span>\\n                <span v-if="page==\\\'cart\\\'" class="page_title"><i class="fa fa-shopping-cart"></i> Your Shopping Cart</span>\\n            </div>\\n            <div class="shopping_button quarter">\\n                <span v-if="page==\\\'prod\\\'">\\n                    <button class="btn orange" v-on:click="goto(\\\'cart\\\')">\\n                        <i class="fa fa-lg fa-shopping-cart"></i> ${cart_size}\\n                    </button>\\n                </span>\\n                <span v-if="page==\\\'cart\\\'">\\n                    <button class="btn" v-on:click="goto(\\\'prod\\\')"> Continue shopping </button>\\n                </span>\\n            </div>\\n        </div>\\n\\n        <div v-if="page==\\\'prod\\\'" id="products_list">\\n            <div v-for="product in products" class="container">\\n                <div class="third prod_image">\\n                    <img v-bind:src="product.image_url" width="100%" class="product_image"/>\\n                </div>\\n                <div class="twothirds product_info">\\n                    <div class="product_name"><h2>${product.product_name}</h2></div>\\n                    <div class="product_quantity_price">\\n                        <span class="product_price">$ ${product.price}</span>\\n                        <span class="product_quantity">Quantity in stock: ${product.quantity}</span>\\n                        <span class="buy_buttons">\\n                            <button class="btn" v-on:click="inc_desired_quantity(product._idx, 1)"><i class="fa fa-plus"></i></button>\\n                            <span class="desired_quantity">${product.desired_quantity}</span>\\n                            <button class="btn" v-on:click="inc_desired_quantity(product._idx, -1)"><i class="fa fa-minus"></i></button>\\n                            <button class="btn red" v-on:click="buy_product(product._idx)"><i class="fa fa-lg fa-shopping-cart"></i> Buy</button>\\n                        </span>\\n                    </div>\\n                    <div class="product_description">\\n                        <p>${product.description}</p>\\n                    </div>\\n\\n                </div>\\n\\n            </div>\\n        </div>\\n\\n        <div v-if="page==\\\'cart\\\'" id="cart_list">\\n            <div v-if="cart.length == 0" class="container">\\n                <div class="cart_empty_msg">\\n                    Your cart is empty\\n                </div>\\n            </div>\\n            <div v-for="product in cart" class="container">\\n                <div class="col-md-3 prod_image third">\\n                    <img v-bind:src="product.image_url" width="100%" class="product_image"/>\\n                </div>\\n                <div class="col-md-10 product_info twothirds">\\n                    <div class="product_name"><h2>${product.product_name}</h2></div>\\n                    <div class="product_quantity_price">\\n                        <span class="product_price">$ ${product.price}</span>\\n                        <span class="product_quantity">Quantity in stock: ${product.quantity}</span>\\n                        <span class="buy_buttons">\\n                            <button class="btn" v-on:click="inc_cart_quantity(product._idx, 1)"><i class="fa fa-plus"></i></button>\\n                            <span class="desired_quantity">${product.cart_quantity}</span>\\n                            <button class="btn" v-on:click="inc_cart_quantity(product._idx, -1)"><i class="fa fa-minus"></i></button>\\n                        </span>\\n                    </div>\\n                    <div class="product_description">\\n                        <p>${product.description}</p>\\n                    </div>\\n                </div>\\n            </div>\\n            <div v-if="cart.length > 0" class="total_price">\\n                Your total price: $ ${cart_total}\\n                <button class="btn blue" v-on:click="pay()"><i class="fa fa-lg fa-credit-card"></i> Pay</button>\\n            </div>\\n        </div>\\n\\n    </div>\\n\\n</div>\\n\\n<script src="\', escape=False)\nresponse.write(URL(\'static\', \'js/default_index.js\'))\nresponse.write(\'"></script>\\n\', escape=False)\nresponse.write(\'\\n    </main>\\n    <footer class="black">\\n      <div class="silver center padded social">\\n        <a class="fa fa-facebook" href="https://www.facebook.com/sharer/sharer.php?u={url}"></a>\\n        <a class="fa fa-twitter" href="https://twitter.com/home?status={url}"></a>\\n        <a class="fa fa-google" href="https://plus.google.com/share?url={url}"></a>\\n      </div>\\n      <div class="container padded max900">\\n        <div class="fill">\\n          Copyright @ 2016\\n        </div>\\n      </div>\\n    </footer>\\n  </body>\\n  <script src="\', escape=False)\nresponse.write(URL(\'static\',\'js/sugar.min.js\'))\nresponse.write(\'"></script>\\n  <script src="\', escape=False)\nresponse.write(URL(\'static\',\'js/marked.min.js\'))\nresponse.write(\'"></script>\\n  <script src="\', escape=False)\nresponse.write(URL(\'static\',\'js/vue.min.js\'))\nresponse.write(\'"></script>\\n  \', escape=False)\nresponse.write("\\n  <script>\\n    jQuery(\'.social a\').each(function(){var t=jQuery(this); t.attr(\'href\',t.attr(\'href\').replace(\'{url}\',encodeURIComponent(window.location.href)));});\\n  </script>\\n</html>\\n", escape=False)'
p7
sS'snapshot'
p8
(dp9
S'exception'
p10
(dp11
S'__hash__'
p12
S"<method-wrapper '__hash__' of exceptions.AttributeError object>"
p13
sS'__setattr__'
p14
S"<method-wrapper '__setattr__' of exceptions.AttributeError object>"
p15
sS'__reduce_ex__'
p16
S'<built-in method __reduce_ex__ of exceptions.AttributeError object>'
p17
sS'__getslice__'
p18
S"<method-wrapper '__getslice__' of exceptions.AttributeError object>"
p19
sS'__getitem__'
p20
S"<method-wrapper '__getitem__' of exceptions.AttributeError object>"
p21
sS'__setstate__'
p22
S'<built-in method __setstate__ of exceptions.AttributeError object>'
p23
sS'args'
p24
S'()'
p25
sS'__reduce__'
p26
S'<built-in method __reduce__ of exceptions.AttributeError object>'
p27
sS'__str__'
p28
S"<method-wrapper '__str__' of exceptions.AttributeError object>"
p29
sS'__format__'
p30
S'<built-in method __format__ of exceptions.AttributeError object>'
p31
sS'__getattribute__'
p32
S"<method-wrapper '__getattribute__' of exceptions.AttributeError object>"
p33
sS'__class__'
p34
S"<type 'exceptions.AttributeError'>"
p35
sS'__unicode__'
p36
S'<built-in method __unicode__ of exceptions.AttributeError object>'
p37
sS'__delattr__'
p38
S"<method-wrapper '__delattr__' of exceptions.AttributeError object>"
p39
sS'__subclasshook__'
p40
S'<built-in method __subclasshook__ of type object>'
p41
sS'__repr__'
p42
S"<method-wrapper '__repr__' of exceptions.AttributeError object>"
p43
sS'__dict__'
p44
S'{}'
p45
sS'__sizeof__'
p46
S'<built-in method __sizeof__ of exceptions.AttributeError object>'
p47
sS'__doc__'
p48
S"'Attribute not found.'"
p49
sS'__init__'
p50
S"<method-wrapper '__init__' of exceptions.AttributeError object>"
p51
sS'__new__'
p52
S'<built-in method __new__ of type object>'
p53
ssS'evalue'
p54
S''
sS'request'
p55
cgluon.html
XML_unpickle
p56
(S's*]\x00\x00<div><table><tr><td style="font-weight:bold;vertical-align:top;">ajax</td><td style="vertical-align:top;">:</td><td><div>False</div></td></tr><tr><td style="font-weight:bold;vertical-align:top;">application</td><td style="vertical-align:top;">:</td><td><div>SlugDash</div></td></tr><tr><td style="font-weight:bold;vertical-align:top;">args</td><td style="vertical-align:top;">:</td><td><div><table></table></div></td></tr><tr><td style="font-weight:bold;vertical-align:top;">cid</td><td style="vertical-align:top;">:</td><td><div>None</div></td></tr><tr><td style="font-weight:bold;vertical-align:top;">client</td><td style="vertical-align:top;">:</td><td><div>127.0.0.1</div></td></tr><tr><td style="font-weight:bold;vertical-align:top;">controller</td><td style="vertical-align:top;">:</td><td><div>default</div></td></tr><tr><td style="font-weight:bold;vertical-align:top;">cookies</td><td style="vertical-align:top;">:</td><td><div><table><tr><td style="font-weight:bold;vertical-align:top;">session_id_admin</td><td style="vertical-align:top;">:</td><td><div>127.0.0.1-280d931e-1990-4e37-92ab-85e3e5d06150<table><tr><td style="font-weight:bold;vertical-align:top;">comment</td><td style="vertical-align:top;">:</td><td><div></div></td></tr><tr><td style="font-weight:bold;vertical-align:top;">domain</td><td style="vertical-align:top;">:</td><td><div></div></td></tr><tr><td style="font-weight:bold;vertical-align:top;">expires</td><td style="vertical-align:top;">:</td><td><div></div></td></tr><tr><td style="font-weight:bold;vertical-align:top;">httponly</td><td style="vertical-align:top;">:</td><td><div></div></td></tr><tr><td style="font-weight:bold;vertical-align:top;">max-age</td><td style="vertical-align:top;">:</td><td><div></div></td></tr><tr><td style="font-weight:bold;vertical-align:top;">path</td><td style="vertical-align:top;">:</td><td><div></div></td></tr><tr><td style="font-weight:bold;vertical-align:top;">secure</td><td style="vertical-align:top;">:</td><td><div></div></td></tr><tr><td style="font-weight:bold;vertical-align:top;">version</td><td style="vertical-align:top;">:</td><td><div></div></td></tr></table></div></td></tr><tr><td style="font-weight:bold;vertical-align:top;">session_id_hw4</td><td style="vertical-align:top;">:</td><td><div>14:1297494d-9335-4438-9cae-3c948847ca42<table><tr><td style="font-weight:bold;vertical-align:top;">comment</td><td style="vertical-align:top;">:</td><td><div></div></td></tr><tr><td style="font-weight:bold;vertical-align:top;">domain</td><td style="vertical-align:top;">:</td><td><div></div></td></tr><tr><td style="font-weight:bold;vertical-align:top;">expires</td><td style="vertical-align:top;">:</td><td><div></div></td></tr><tr><td style="font-weight:bold;vertical-align:top;">httponly</td><td style="vertical-align:top;">:</td><td><div></div></td></tr><tr><td style="font-weight:bold;vertical-align:top;">max-age</td><td style="vertical-align:top;">:</td><td><div></div></td></tr><tr><td style="font-weight:bold;vertical-align:top;">path</td><td style="vertical-align:top;">:</td><td><div></div></td></tr><tr><td style="font-weight:bold;vertical-align:top;">secure</td><td style="vertical-align:top;">:</td><td><div></div></td></tr><tr><td style="font-weight:bold;vertical-align:top;">version</td><td style="vertical-align:top;">:</td><td><div></div></td></tr></table></div></td></tr><tr><td style="font-weight:bold;vertical-align:top;">session_id_slugdash</td><td style="vertical-align:top;">:</td><td><div>18:04c9f2b2-5552-489c-8898-f31522c6c664<table><tr><td style="font-weight:bold;vertical-align:top;">comment</td><td style="vertical-align:top;">:</td><td><div></div></td></tr><tr><td style="font-weight:bold;vertical-align:top;">domain</td><td style="vertical-align:top;">:</td><td><div></div></td></tr><tr><td style="font-weight:bold;vertical-align:top;">expires</td><td style="vertical-align:top;">:</td><td><div></div></td></tr><tr><td style="font-weight:bold;vertical-align:top;">httponly</td><td style="vertical-align:top;">:</td><td><div></div></td></tr><tr><td style="font-weight:bold;vertical-align:top;">max-age</td><td style="vertical-align:top;">:</td><td><div></div></td></tr><tr><td style="font-weight:bold;vertical-align:top;">path</td><td style="vertical-align:top;">:</td><td><div></div></td></tr><tr><td style="font-weight:bold;vertical-align:top;">secure</td><td style="vertical-align:top;">:</td><td><div></div></td></tr><tr><td style="font-weight:bold;vertical-align:top;">version</td><td style="vertical-align:top;">:</td><td><div></div></td></tr></table></div></td></tr></table></div></td></tr><tr><td style="font-weight:bold;vertical-align:top;">env</td><td style="vertical-align:top;">:</td><td><div><table><tr><td style="font-weight:bold;vertical-align:top;">HTTP_ACCEPT</td><td style="vertical-align:top;">:</td><td><div>text/html,application/xhtml+xml,application/xml;q=0.9,image/webp,*/*;q=0.8</div></td></tr><tr><td style="font-weight:bold;vertical-align:top;">HTTP_ACCEPT_ENCODING</td><td style="vertical-align:top;">:</td><td><div>gzip, deflate, sdch, br</div></td></tr><tr><td style="font-weight:bold;vertical-align:top;">HTTP_ACCEPT_LANGUAGE</td><td style="vertical-align:top;">:</td><td><div>en-US,en;q=0.8,vi;q=0.6</div></td></tr><tr><td style="font-weight:bold;vertical-align:top;">HTTP_CACHE_CONTROL</td><td style="vertical-align:top;">:</td><td><div>max-age=0</div></td></tr><tr><td style="font-weight:bold;vertical-align:top;">HTTP_CONNECTION</td><td style="vertical-align:top;">:</td><td><div>keep-alive</div></td></tr><tr><td style="font-weight:bold;vertical-align:top;">HTTP_COOKIE</td><td style="vertical-align:top;">:</td><td><div>session_id_hw4=&quot;14:1297494d-9335-4438-9cae-3c948847ca42&quot;; session_id_admin=127.0.0.1-280d931e-1990-4e37-92ab-85e3e5d06150; session_id_slugdash=&quot;18:04c9f2b2-5552-489c-8898-f31522c6c664&quot;</div></td></tr><tr><td style="font-weight:bold;vertical-align:top;">HTTP_HOST</td><td style="vertical-align:top;">:</td><td><div>127.0.0.1:8000</div></td></tr><tr><td style="font-weight:bold;vertical-align:top;">HTTP_REFERER</td><td style="vertical-align:top;">:</td><td><div>http://127.0.0.1:8000/SlugDash/view_orders</div></td></tr><tr><td style="font-weight:bold;vertical-align:top;">HTTP_UPGRADE_INSECURE_REQUESTS</td><td style="vertical-align:top;">:</td><td><div>1</div></td></tr><tr><td style="font-weight:bold;vertical-align:top;">HTTP_USER_AGENT</td><td style="vertical-align:top;">:</td><td><div>Mozilla/5.0 (Macintosh; Intel Mac OS X 10_12_1) AppleWebKit/537.36 (KHTML, like Gecko) Chrome/54.0.2840.98 Safari/537.36</div></td></tr><tr><td style="font-weight:bold;vertical-align:top;">PATH_INFO</td><td style="vertical-align:top;">:</td><td><div>/SlugDash</div></td></tr><tr><td style="font-weight:bold;vertical-align:top;">QUERY_STRING</td><td style="vertical-align:top;">:</td><td><div></div></td></tr><tr><td style="font-weight:bold;vertical-align:top;">REMOTE_ADDR</td><td style="vertical-align:top;">:</td><td><div>127.0.0.1</div></td></tr><tr><td style="font-weight:bold;vertical-align:top;">REMOTE_PORT</td><td style="vertical-align:top;">:</td><td><div>58264</div></td></tr><tr><td style="font-weight:bold;vertical-align:top;">REQUEST_METHOD</td><td style="vertical-align:top;">:</td><td><div>GET</div></td></tr><tr><td style="font-weight:bold;vertical-align:top;">SCRIPT_NAME</td><td style="vertical-align:top;">:</td><td><div></div></td></tr><tr><td style="font-weight:bold;vertical-align:top;">SERVER_NAME</td><td style="vertical-align:top;">:</td><td><div>Kys-MacBook-Pro</div></td></tr><tr><td style="font-weight:bold;vertical-align:top;">SERVER_PORT</td><td style="vertical-align:top;">:</td><td><div>8000</div></td></tr><tr><td style="font-weight:bold;vertical-align:top;">SERVER_PROTOCOL</td><td style="vertical-align:top;">:</td><td><div>HTTP/1.1</div></td></tr><tr><td style="font-weight:bold;vertical-align:top;">SERVER_SOFTWARE</td><td style="vertical-align:top;">:</td><td><div>Rocket 1.2.6</div></td></tr><tr><td style="font-weight:bold;vertical-align:top;">app_folders</td><td style="vertical-align:top;">:</td><td><div>set([&#x27;/Users/kayatomic/web2py/applications/SlugDash/&#x27;, &#x27;/Users/kayatomic/web2py/applications/welcome/&#x27;, &#x27;/Users/kayatomic/web2py/applications/hw4/&#x27;, &#x27;/Users/kayatomic/web2py/applications/admin/&#x27;])</div></td></tr><tr><td style="font-weight:bold;vertical-align:top;">applications_parent</td><td style="vertical-align:top;">:</td><td><div>/Users/kayatomic/web2py</div></td></tr><tr><td style="font-weight:bold;vertical-align:top;">cmd_args</td><td style="vertical-align:top;">:</td><td><div><table></table></div></td></tr><tr><td style="font-weight:bold;vertical-align:top;">cmd_options</td><td style="vertical-align:top;">:</td><td><div>&lt;Values at 0x10f93ec68: {&#x27;verbose&#x27;: False, &#x27;ip&#x27;: &#x27;127.0.0.1&#x27;, &#x27;debuglevel&#x27;: 30, &#x27;with_scheduler&#x27;: False, &#x27;shutdown_timeout&#x27;: 5, &#x27;taskbar&#x27;: False, &#x27;with_coverage&#x27;: False, &#x27;pid_filename&#x27;: &#x27;httpserver.pid&#x27;, &#x27;maxthreads&#x27;: None, &#x27;softcron&#x27;: False, &#x27;server_name&#x27;: &#x27;Kys-MacBook-Pro&#x27;, &#x27;bpython&#x27;: False, &#x27;nogui&#x27;: False, &#x27;port&#x27;: 8000, &#x27;print_errors&#x27;: True, &#x27;extcron&#x27;: False, &#x27;runcron&#x27;: False, &#x27;run_system_tests&#x27;: False, &#x27;test&#x27;: None, &#x27;folder&#x27;: &#x27;/Users/kayatomic/web2py&#x27;, &#x27;config&#x27;: &#x27;&#x27;, &#x27;minthreads&#x27;: None, &#x27;shell&#x27;: None, &#x27;run&#x27;: &#x27;&#x27;, &#x27;log_filename&#x27;: &#x27;httpserver.log&#x27;, &#x27;profiler_dir&#x27;: None, &#x27;args&#x27;: [&#x27;&#x27;], &#x27;socket_timeout&#x27;: 5, &#x27;ssl_ca_certificate&#x27;: None, &#x27;scheduler&#x27;: None, &#x27;interfaces&#x27;: None, &#x27;ssl_private_key&#x27;: &#x27;&#x27;, &#x27;gae&#x27;: None, &#x27;password&#x27;: &#x27;******&#x27;, &#x27;request_queue_size&#x27;: 5, &#x27;ssl_certificate&#x27;: &#x27;&#x27;, &#x27;cronjob&#x27;: False, &#x27;numthreads&#x27;: None, &#x27;quiet&#x27;: False, &#x27;import_models&#x27;: False, &#x27;timeout&#x27;: 10, &#x27;plain&#x27;: False, &#x27;nobanner&#x27;: False}&gt;</div></td></tr><tr><td style="font-weight:bold;vertical-align:top;">db_sessions</td><td style="vertical-align:top;">:</td><td><div>set([&#x27;hw4&#x27;, &#x27;SlugDash&#x27;])</div></td></tr><tr><td style="font-weight:bold;vertical-align:top;">debugging</td><td style="vertical-align:top;">:</td><td><div>False</div></td></tr><tr><td style="font-weight:bold;vertical-align:top;">gluon_parent</td><td style="vertical-align:top;">:</td><td><div>/Users/kayatomic/web2py</div></td></tr><tr><td style="font-weight:bold;vertical-align:top;">http_accept</td><td style="vertical-align:top;">:</td><td><div>text/html,application/xhtml+xml,application/xml;q=0.9,image/webp,*/*;q=0.8</div></td></tr><tr><td style="font-weight:bold;vertical-align:top;">http_accept_encoding</td><td style="vertical-align:top;">:</td><td><div>gzip, deflate, sdch, br</div></td></tr><tr><td style="font-weight:bold;vertical-align:top;">http_accept_language</td><td style="vertical-align:top;">:</td><td><div>en-US,en;q=0.8,vi;q=0.6</div></td></tr><tr><td style="font-weight:bold;vertical-align:top;">http_cache_control</td><td style="vertical-align:top;">:</td><td><div>max-age=0</div></td></tr><tr><td style="font-weight:bold;vertical-align:top;">http_connection</td><td style="vertical-align:top;">:</td><td><div>keep-alive</div></td></tr><tr><td style="font-weight:bold;vertical-align:top;">http_cookie</td><td style="vertical-align:top;">:</td><td><div>session_id_hw4=&quot;14:1297494d-9335-4438-9cae-3c948847ca42&quot;; session_id_admin=127.0.0.1-280d931e-1990-4e37-92ab-85e3e5d06150; session_id_slugdash=&quot;18:04c9f2b2-5552-489c-8898-f31522c6c664&quot;</div></td></tr><tr><td style="font-weight:bold;vertical-align:top;">http_host</td><td style="vertical-align:top;">:</td><td><div>127.0.0.1:8000</div></td></tr><tr><td style="font-weight:bold;vertical-align:top;">http_referer</td><td style="vertical-align:top;">:</td><td><div>http://127.0.0.1:8000/SlugDash/view_orders</div></td></tr><tr><td style="font-weight:bold;vertical-align:top;">http_upgrade_insecure_requests</td><td style="vertical-align:top;">:</td><td><div>1</div></td></tr><tr><td style="font-weight:bold;vertical-align:top;">http_user_agent</td><td style="vertical-align:top;">:</td><td><div>Mozilla/5.0 (Macintosh; Intel Mac OS X 10_12_1) AppleWebKit/537.36 (KHTML, like Gecko) Chrome/54.0.2840.98 Safari/537.36</div></td></tr><tr><td style="font-weight:bold;vertical-align:top;">is_jython</td><td style="vertical-align:top;">:</td><td><div>False</div></td></tr><tr><td style="font-weight:bold;vertical-align:top;">is_pypy</td><td style="vertical-align:top;">:</td><td><div>False</div></td></tr><tr><td style="font-weight:bold;vertical-align:top;">is_source</td><td style="vertical-align:top;">:</td><td><div>True</div></td></tr><tr><td style="font-weight:bold;vertical-align:top;">local_hosts</td><td style="vertical-align:top;">:</td><td><div><table><tr><td><div>192.168.1.82</div></td></tr><tr><td><div>::ffff:127.0.0.1</div></td></tr><tr><td><div>::1</div></td></tr><tr><td><div>Kys-MacBook-Pro</div></td></tr><tr><td><div>127.0.0.1</div></td></tr><tr><td><div>82.1.168.192.in-addr.arpa</div></td></tr></table></div></td></tr><tr><td style="font-weight:bold;vertical-align:top;">path_info</td><td style="vertical-align:top;">:</td><td><div>/SlugDash</div></td></tr><tr><td style="font-weight:bold;vertical-align:top;">query_string</td><td style="vertical-align:top;">:</td><td><div></div></td></tr><tr><td style="font-weight:bold;vertical-align:top;">remote_addr</td><td style="vertical-align:top;">:</td><td><div>127.0.0.1</div></td></tr><tr><td style="font-weight:bold;vertical-align:top;">remote_port</td><td style="vertical-align:top;">:</td><td><div>58264</div></td></tr><tr><td style="font-weight:bold;vertical-align:top;">request_method</td><td style="vertical-align:top;">:</td><td><div>GET</div></td></tr><tr><td style="font-weight:bold;vertical-align:top;">request_uri</td><td style="vertical-align:top;">:</td><td><div>/SlugDash/default/index</div></td></tr><tr><td style="font-weight:bold;vertical-align:top;">script_name</td><td style="vertical-align:top;">:</td><td><div></div></td></tr><tr><td style="font-weight:bold;vertical-align:top;">server_name</td><td style="vertical-align:top;">:</td><td><div>Kys-MacBook-Pro</div></td></tr><tr><td style="font-weight:bold;vertical-align:top;">server_port</td><td style="vertical-align:top;">:</td><td><div>8000</div></td></tr><tr><td style="font-weight:bold;vertical-align:top;">server_protocol</td><td style="vertical-align:top;">:</td><td><div>HTTP/1.1</div></td></tr><tr><td style="font-weight:bold;vertical-align:top;">server_software</td><td style="vertical-align:top;">:</td><td><div>Rocket 1.2.6</div></td></tr><tr><td style="font-weight:bold;vertical-align:top;">web2py_original_uri</td><td style="vertical-align:top;">:</td><td><div>/SlugDash</div></td></tr><tr><td style="font-weight:bold;vertical-align:top;">web2py_path</td><td style="vertical-align:top;">:</td><td><div>/Users/kayatomic/web2py</div></td></tr><tr><td style="font-weight:bold;vertical-align:top;">web2py_version</td><td style="vertical-align:top;">:</td><td><div>2.14.6-stable+timestamp.2016.05.10.00.21.47</div></td></tr><tr><td style="font-weight:bold;vertical-align:top;">wsgi.errors</td><td style="vertical-align:top;">:</td><td><div>&lt;open file &#x27;&lt;stderr&gt;&#x27;, mode &#x27;w&#x27; at 0x10c8471e0&gt;</div></td></tr><tr><td style="font-weight:bold;vertical-align:top;">wsgi.file_wrapper</td><td style="vertical-align:top;">:</td><td><div>&lt;class wsgiref.util.FileWrapper at 0x10f8d5a78&gt;</div></td></tr><tr><td style="font-weight:bold;vertical-align:top;">wsgi.input</td><td style="vertical-align:top;">:</td><td><div>&lt;socket._fileobject object at 0x11498aed0&gt;</div></td></tr><tr><td style="font-weight:bold;vertical-align:top;">wsgi.multiprocess</td><td style="vertical-align:top;">:</td><td><div>False</div></td></tr><tr><td style="font-weight:bold;vertical-align:top;">wsgi.multithread</td><td style="vertical-align:top;">:</td><td><div>True</div></td></tr><tr><td style="font-weight:bold;vertical-align:top;">wsgi.run_once</td><td style="vertical-align:top;">:</td><td><div>False</div></td></tr><tr><td style="font-weight:bold;vertical-align:top;">wsgi.url_scheme</td><td style="vertical-align:top;">:</td><td><div>http</div></td></tr><tr><td style="font-weight:bold;vertical-align:top;">wsgi.version</td><td style="vertical-align:top;">:</td><td><div><table><tr><td><div>1</div></td></tr><tr><td><div>0</div></td></tr></table></div></td></tr><tr><td style="font-weight:bold;vertical-align:top;">wsgi_errors</td><td style="vertical-align:top;">:</td><td><div>&lt;open file &#x27;&lt;stderr&gt;&#x27;, mode &#x27;w&#x27; at 0x10c8471e0&gt;</div></td></tr><tr><td style="font-weight:bold;vertical-align:top;">wsgi_file_wrapper</td><td style="vertical-align:top;">:</td><td><div>&lt;class wsgiref.util.FileWrapper at 0x10f8d5a78&gt;</div></td></tr><tr><td style="font-weight:bold;vertical-align:top;">wsgi_input</td><td style="vertical-align:top;">:</td><td><div>&lt;socket._fileobject object at 0x11498aed0&gt;</div></td></tr><tr><td style="font-weight:bold;vertical-align:top;">wsgi_multiprocess</td><td style="vertical-align:top;">:</td><td><div>False</div></td></tr><tr><td style="font-weight:bold;vertical-align:top;">wsgi_multithread</td><td style="vertical-align:top;">:</td><td><div>True</div></td></tr><tr><td style="font-weight:bold;vertical-align:top;">wsgi_run_once</td><td style="vertical-align:top;">:</td><td><div>False</div></td></tr><tr><td style="font-weight:bold;vertical-align:top;">wsgi_url_scheme</td><td style="vertical-align:top;">:</td><td><div>http</div></td></tr><tr><td style="font-weight:bold;vertical-align:top;">wsgi_version</td><td style="vertical-align:top;">:</td><td><div><table><tr><td><div>1</div></td></tr><tr><td><div>0</div></td></tr></table></div></td></tr></table></div></td></tr><tr><td style="font-weight:bold;vertical-align:top;">extension</td><td style="vertical-align:top;">:</td><td><div>html</div></td></tr><tr><td style="font-weight:bold;vertical-align:top;">folder</td><td style="vertical-align:top;">:</td><td><div>/Users/kayatomic/web2py/applications/SlugDash/</div></td></tr><tr><td style="font-weight:bold;vertical-align:top;">function</td><td style="vertical-align:top;">:</td><td><div>index</div></td></tr><tr><td style="font-weight:bold;vertical-align:top;">global_settings</td><td style="vertical-align:top;">:</td><td><div><table><tr><td style="font-weight:bold;vertical-align:top;">app_folders</td><td style="vertical-align:top;">:</td><td><div>set([&#x27;/Users/kayatomic/web2py/applications/SlugDash/&#x27;, &#x27;/Users/kayatomic/web2py/applications/welcome/&#x27;, &#x27;/Users/kayatomic/web2py/applications/hw4/&#x27;, &#x27;/Users/kayatomic/web2py/applications/admin/&#x27;])</div></td></tr><tr><td style="font-weight:bold;vertical-align:top;">applications_parent</td><td style="vertical-align:top;">:</td><td><div>/Users/kayatomic/web2py</div></td></tr><tr><td style="font-weight:bold;vertical-align:top;">cmd_args</td><td style="vertical-align:top;">:</td><td><div><table></table></div></td></tr><tr><td style="font-weight:bold;vertical-align:top;">cmd_options</td><td style="vertical-align:top;">:</td><td><div>&lt;Values at 0x10f93ec68: {&#x27;verbose&#x27;: False, &#x27;ip&#x27;: &#x27;127.0.0.1&#x27;, &#x27;debuglevel&#x27;: 30, &#x27;with_scheduler&#x27;: False, &#x27;shutdown_timeout&#x27;: 5, &#x27;taskbar&#x27;: False, &#x27;with_coverage&#x27;: False, &#x27;pid_filename&#x27;: &#x27;httpserver.pid&#x27;, &#x27;maxthreads&#x27;: None, &#x27;softcron&#x27;: False, &#x27;server_name&#x27;: &#x27;Kys-MacBook-Pro&#x27;, &#x27;bpython&#x27;: False, &#x27;nogui&#x27;: False, &#x27;port&#x27;: 8000, &#x27;print_errors&#x27;: True, &#x27;extcron&#x27;: False, &#x27;runcron&#x27;: False, &#x27;run_system_tests&#x27;: False, &#x27;test&#x27;: None, &#x27;folder&#x27;: &#x27;/Users/kayatomic/web2py&#x27;, &#x27;config&#x27;: &#x27;&#x27;, &#x27;minthreads&#x27;: None, &#x27;shell&#x27;: None, &#x27;run&#x27;: &#x27;&#x27;, &#x27;log_filename&#x27;: &#x27;httpserver.log&#x27;, &#x27;profiler_dir&#x27;: None, &#x27;args&#x27;: [&#x27;&#x27;], &#x27;socket_timeout&#x27;: 5, &#x27;ssl_ca_certificate&#x27;: None, &#x27;scheduler&#x27;: None, &#x27;interfaces&#x27;: None, &#x27;ssl_private_key&#x27;: &#x27;&#x27;, &#x27;gae&#x27;: None, &#x27;password&#x27;: &#x27;******&#x27;, &#x27;request_queue_size&#x27;: 5, &#x27;ssl_certificate&#x27;: &#x27;&#x27;, &#x27;cronjob&#x27;: False, &#x27;numthreads&#x27;: None, &#x27;quiet&#x27;: False, &#x27;import_models&#x27;: False, &#x27;timeout&#x27;: 10, &#x27;plain&#x27;: False, &#x27;nobanner&#x27;: False}&gt;</div></td></tr><tr><td style="font-weight:bold;vertical-align:top;">db_sessions</td><td style="vertical-align:top;">:</td><td><div>set([&#x27;hw4&#x27;, &#x27;SlugDash&#x27;])</div></td></tr><tr><td style="font-weight:bold;vertical-align:top;">debugging</td><td style="vertical-align:top;">:</td><td><div>False</div></td></tr><tr><td style="font-weight:bold;vertical-align:top;">gluon_parent</td><td style="vertical-align:top;">:</td><td><div>/Users/kayatomic/web2py</div></td></tr><tr><td style="font-weight:bold;vertical-align:top;">is_jython</td><td style="vertical-align:top;">:</td><td><div>False</div></td></tr><tr><td style="font-weight:bold;vertical-align:top;">is_pypy</td><td style="vertical-align:top;">:</td><td><div>False</div></td></tr><tr><td style="font-weight:bold;vertical-align:top;">is_source</td><td style="vertical-align:top;">:</td><td><div>True</div></td></tr><tr><td style="font-weight:bold;vertical-align:top;">local_hosts</td><td style="vertical-align:top;">:</td><td><div><table><tr><td><div>192.168.1.82</div></td></tr><tr><td><div>::ffff:127.0.0.1</div></td></tr><tr><td><div>::1</div></td></tr><tr><td><div>Kys-MacBook-Pro</div></td></tr><tr><td><div>127.0.0.1</div></td></tr><tr><td><div>82.1.168.192.in-addr.arpa</div></td></tr></table></div></td></tr><tr><td style="font-weight:bold;vertical-align:top;">web2py_version</td><td style="vertical-align:top;">:</td><td><div>2.14.6-stable+timestamp.2016.05.10.00.21.47</div></td></tr></table></div></td></tr><tr><td style="font-weight:bold;vertical-align:top;">is_https</td><td style="vertical-align:top;">:</td><td><div>False</div></td></tr><tr><td style="font-weight:bold;vertical-align:top;">is_local</td><td style="vertical-align:top;">:</td><td><div>True</div></td></tr><tr><td style="font-weight:bold;vertical-align:top;">is_restful</td><td style="vertical-align:top;">:</td><td><div>False</div></td></tr><tr><td style="font-weight:bold;vertical-align:top;">is_scheduler</td><td style="vertical-align:top;">:</td><td><div>False</div></td></tr><tr><td style="font-weight:bold;vertical-align:top;">is_shell</td><td style="vertical-align:top;">:</td><td><div>False</div></td></tr><tr><td style="font-weight:bold;vertical-align:top;">now</td><td style="vertical-align:top;">:</td><td><div>datetime.datetime(2016, 11, 28, 16, 25, 17, 882653)</div></td></tr><tr><td style="font-weight:bold;vertical-align:top;">url</td><td style="vertical-align:top;">:</td><td><div>/SlugDash</div></td></tr><tr><td style="font-weight:bold;vertical-align:top;">utcnow</td><td style="vertical-align:top;">:</td><td><div>datetime.datetime(2016, 11, 29, 0, 25, 17, 882661)</div></td></tr><tr><td style="font-weight:bold;vertical-align:top;">wsgi</td><td style="vertical-align:top;">:</td><td><div>&lt;gluon.main.LazyWSGI object at 0x1156efc90&gt;</div></td></tr></table></div>'
tRp57
sS'frames'
p58
(lp59
(dp60
S'file'
p61
S'/Users/kayatomic/web2py/gluon/restricted.py'
p62
sS'dump'
p63
(dp64
S'environment'
p65
S"{'A': <class 'gluon.html.A'>, 'ANY_OF': <class 'gluon.validators.ANY_OF'>, 'ASSIGNJS': <function ASSIGNJS>, 'AppConfig': <function AppConfig>, 'Auth': <class 'gluon.tools.Auth'>, 'B': <class 'gluon.html.B'>, 'BEAUTIFY': <class 'gluon.html.BEAUTIFY'>, 'BODY': <class 'gluon.html.BODY'>, 'BR': <class 'gluon.html.BR'>, 'BUTTON': <class 'gluon.html.BUTTON'>, ...}"
p66
sS'ccode'
p67
S'<code object <module> at 0x1156ea8b0, file "/Use...tions/SlugDash/views/default/index.html", line 1>'
p68
ssS'lnum'
p69
I227
sS'lines'
p70
(dp71
I224
S'            ccode = code'
p72
sI225
S'        else:'
p73
sI226
S'            ccode = compile2(code, layer)'
p74
sI227
S'        exec ccode in environment'
p75
sI228
S'    except HTTP:'
p76
sI229
S'        raise'
p77
sI230
S'    except RestrictedError:'
p78
sI231
S'        # do not encapsulate (obfuscate) the original RestrictedError'
p79
sI222
S'    try:'
p80
sI223
S'        if isinstance(code, types.CodeType):'
p81
ssS'call'
p82
S'(code=\'response.write(\\\'<html>\\\\n  <head>\\\\n    <meta char...ef)));});\\\\n  </script>\\\\n</html>\\\\n", escape=False)\', environment={\'A\': <class \'gluon.html.A\'>, \'ANY_OF\': <class \'gluon.validators.ANY_OF\'>, \'ASSIGNJS\': <function ASSIGNJS>, \'AppConfig\': <function AppConfig>, \'Auth\': <class \'gluon.tools.Auth\'>, \'B\': <class \'gluon.html.B\'>, \'BEAUTIFY\': <class \'gluon.html.BEAUTIFY\'>, \'BODY\': <class \'gluon.html.BODY\'>, \'BR\': <class \'gluon.html.BR\'>, \'BUTTON\': <class \'gluon.html.BUTTON\'>, ...}, layer=\'/Users/kayatomic/web2py/applications/SlugDash/views/default/index.html\')'
p83
sS'func'
p84
S'restricted'
p85
sa(dp86
g61
S'/Users/kayatomic/web2py/applications/SlugDash/views/default/index.html'
p87
sg63
(dp88
S'div'
p89
S'undefined'
p90
ssg69
I52
sg70
(dp91
I43
S"response.write('\\n\\n', escape=False)"
p92
sI44
S'response.write(\'\\n<script src="\', escape=False)'
p93
sI45
S"response.write(URL('static', 'js/vue.js'))"
p94
sI46
S'response.write(\'"></script>\\n<script src="https://checkout.stripe.com/checkout.js"></script>\\n<script>\\n    var products_url = "\', escape=False)'
p95
sI47
S"response.write(URL('default', 'get_products'))"
p96
sI48
S'response.write(\'";\\n    var purchase_url = "\', escape=False)'
p97
sI49
S"response.write(URL('default', 'purchase', hmac_key=session.hmac_key))"
p98
sI50
S'response.write(\'"\\n</script>\\n\', escape=False)'
p99
sI51
S"response.write('\\n\\n<h2>', escape=False)"
p100
sI52
S'response.write(auth.user.membership)'
p101
sI53
S'response.write(\'</h2>\\n\\n<div class="main_content">\\n    <div id="vue-div" style="display:none">\\n        <div class="control_bar container">\\n            <div class="search_div threequarters">\\n                <span v-if="page==\\\'prod\\\'">\\n                    <input class="search_input" v-model="product_search"/>\\n                    <button class="btn" v-on:click="do_search"><i class="fa fa-search fa-lg"></i></button>\\n                </span>\\n                <span v-if="page==\\\'cart\\\'" class="page_title"><i class="fa fa-shopping-cart"></i> Your Shopping Cart</span>\\n            </div>\\n            <div class="shopping_button quarter">\\n                <span v-if="page==\\\'prod\\\'">\\n                    <button class="btn orange" v-on:click="goto(\\\'cart\\\')">\\n                        <i class="fa fa-lg fa-shopping-cart"></i> ${cart_size}\\n                    </button>\\n                </span>\\n                <span v-if="page==\\\'cart\\\'">\\n                    <button class="btn" v-on:click="goto(\\\'prod\\\')"> Continue shopping </button>\\n                </span>\\n            </div>\\n        </div>\\n\\n        <div v-if="page==\\\'prod\\\'" id="products_list">\\n            <div v-for="product in products" class="container">\\n                <div class="third prod_image">\\n                    <img v-bind:src="product.image_url" width="100%" class="product_image"/>\\n                </div>\\n                <div class="twothirds product_info">\\n                    <div class="product_name"><h2>${product.product_name}</h2></div>\\n                    <div class="product_quantity_price">\\n                        <span class="product_price">$ ${product.price}</span>\\n                        <span class="product_quantity">Quantity in stock: ${product.quantity}</span>\\n                        <span class="buy_buttons">\\n                            <button class="btn" v-on:click="inc_desired_quantity(product._idx, 1)"><i class="fa fa-plus"></i></button>\\n                            <span class="desired_quantity">${product.desired_quantity}</span>\\n                            <button class="btn" v-on:click="inc_desired_quantity(product._idx, -1)"><i class="fa fa-minus"></i></button>\\n                            <button class="btn red" v-on:click="buy_product(product._idx)"><i class="fa fa-lg fa-shopping-cart"></i> Buy</button>\\n                        </span>\\n                    </div>\\n                    <div class="product_description">\\n                        <p>${product.description}</p>\\n                    </div>\\n\\n                </div>\\n\\n            </div>\\n        </div>\\n\\n        <div v-if="page==\\\'cart\\\'" id="cart_list">\\n            <div v-if="cart.length == 0" class="container">\\n                <div class="cart_empty_msg">\\n                    Your cart is empty\\n                </div>\\n            </div>\\n            <div v-for="product in cart" class="container">\\n                <div class="col-md-3 prod_image third">\\n                    <img v-bind:src="product.image_url" width="100%" class="product_image"/>\\n                </div>\\n                <div class="col-md-10 product_info twothirds">\\n                    <div class="product_name"><h2>${product.product_name}</h2></div>\\n                    <div class="product_quantity_price">\\n                        <span class="product_price">$ ${product.price}</span>\\n                        <span class="product_quantity">Quantity in stock: ${product.quantity}</span>\\n                        <span class="buy_buttons">\\n                            <button class="btn" v-on:click="inc_cart_quantity(product._idx, 1)"><i class="fa fa-plus"></i></button>\\n                            <span class="desired_quantity">${product.cart_quantity}</span>\\n                            <button class="btn" v-on:click="inc_cart_quantity(product._idx, -1)"><i class="fa fa-minus"></i></button>\\n                        </span>\\n                    </div>\\n                    <div class="product_description">\\n                        <p>${product.description}</p>\\n                    </div>\\n                </div>\\n            </div>\\n            <div v-if="cart.length > 0" class="total_price">\\n                Your total price: $ ${cart_total}\\n                <button class="btn blue" v-on:click="pay()"><i class="fa fa-lg fa-credit-card"></i> Pay</button>\\n            </div>\\n        </div>\\n\\n    </div>\\n\\n</div>\\n\\n<script src="\', escape=False)'
p102
sI54
S"response.write(URL('static', 'js/default_index.js'))"
p103
sI55
S'response.write(\'"></script>\\n\', escape=False)'
p104
sI56
S'response.write(\'\\n    </main>\\n    <footer class="black">\\n      <div class="silver center padded social">\\n        <a class="fa fa-facebook" href="https://www.facebook.com/sharer/sharer.php?u={url}"></a>\\n        <a class="fa fa-twitter" href="https://twitter.com/home?status={url}"></a>\\n        <a class="fa fa-google" href="https://plus.google.com/share?url={url}"></a>\\n      </div>\\n      <div class="container padded max900">\\n        <div class="fill">\\n          Copyright @ 2016\\n        </div>\\n      </div>\\n    </footer>\\n  </body>\\n  <script src="\', escape=False)'
p105
sI57
S"response.write(URL('static','js/sugar.min.js'))"
p106
sI58
S'response.write(\'"></script>\\n  <script src="\', escape=False)'
p107
sI59
S"response.write(URL('static','js/marked.min.js'))"
p108
sI60
S'response.write(\'"></script>\\n  <script src="\', escape=False)'
p109
sI61
S"response.write(URL('static','js/vue.min.js'))"
p110
sI62
S'response.write(\'"></script>\\n  \', escape=False)'
p111
ssg82
S'()'
p112
sg84
S'<module>'
p113
sa(dp114
g61
S'/Users/kayatomic/web2py/gluon/packages/dal/pydal/objects.py'
p115
sg63
(dp116
S'builtinAttributeError'
p117
S"<type 'exceptions.AttributeError'>"
p118
ssg69
I90
sg70
(dp119
I85
S''
sI86
S'    def __getattr__(self, k):'
p120
sI87
S'        try:'
p121
sI88
S'            return self.__getitem__(k)'
p122
sI89
S'        except KeyError:'
p123
sI90
S'            raise AttributeError'
p124
sI91
S''
sI92
S'    def __copy__(self):'
p125
sI93
S'        return Row(self)'
p126
sI94
S''
ssg82
S"(self=<Row {'first_name': 'Tajin', 'last_name': 'Marij...& Ten Circle', 'registration_key': '', 'id': 9L}>, k='membership')"
p127
sg84
S'__getattr__'
p128
sasS'pyver'
p129
S'Python 2.7.10: /usr/bin/python (prefix: /System/Library/Frameworks/Python.framework/Versions/2.7)'
p130
sS'session'
p131
g56
(S's\xd3\x0b\x00\x00<div><table><tr><td style="font-weight:bold;vertical-align:top;">auth</td><td style="vertical-align:top;">:</td><td><div><table><tr><td style="font-weight:bold;vertical-align:top;">expiration</td><td style="vertical-align:top;">:</td><td><div>3600</div></td></tr><tr><td style="font-weight:bold;vertical-align:top;">hmac_key</td><td style="vertical-align:top;">:</td><td><div>28f31a10-e1e5-4f26-a27a-dd559ac1a874</div></td></tr><tr><td style="font-weight:bold;vertical-align:top;">last_visit</td><td style="vertical-align:top;">:</td><td><div>datetime.datetime(2016, 11, 28, 16, 25, 8, 493313)</div></td></tr><tr><td style="font-weight:bold;vertical-align:top;">user</td><td style="vertical-align:top;">:</td><td><div><table><tr><td style="font-weight:bold;vertical-align:top;">address</td><td style="vertical-align:top;">:</td><td><div>Nine &amp; Ten Circle</div></td></tr><tr><td style="font-weight:bold;vertical-align:top;">email</td><td style="vertical-align:top;">:</td><td><div>kymnguye@ucsc.edu</div></td></tr><tr><td style="font-weight:bold;vertical-align:top;">first_name</td><td style="vertical-align:top;">:</td><td><div>Tajin</div></td></tr><tr><td style="font-weight:bold;vertical-align:top;">id</td><td style="vertical-align:top;">:</td><td><div>9L</div></td></tr><tr><td style="font-weight:bold;vertical-align:top;">last_name</td><td style="vertical-align:top;">:</td><td><div>Marijuan</div></td></tr><tr><td style="font-weight:bold;vertical-align:top;">phone</td><td style="vertical-align:top;">:</td><td><div>4083322375</div></td></tr><tr><td style="font-weight:bold;vertical-align:top;">registration_id</td><td style="vertical-align:top;">:</td><td><div></div></td></tr><tr><td style="font-weight:bold;vertical-align:top;">registration_key</td><td style="vertical-align:top;">:</td><td><div></div></td></tr><tr><td style="font-weight:bold;vertical-align:top;">reset_password_key</td><td style="vertical-align:top;">:</td><td><div></div></td></tr><tr><td style="font-weight:bold;vertical-align:top;">user_type</td><td style="vertical-align:top;">:</td><td><div>Driver</div></td></tr></table></div></td></tr><tr><td style="font-weight:bold;vertical-align:top;">user_groups</td><td style="vertical-align:top;">:</td><td><div><table><tr><td style="font-weight:bold;vertical-align:top;">11</td><td style="vertical-align:top;">:</td><td><div>user_9</div></td></tr></table></div></td></tr></table></div></td></tr><tr><td style="font-weight:bold;vertical-align:top;">flash</td><td style="vertical-align:top;">:</td><td><div>None</div></td></tr><tr><td style="font-weight:bold;vertical-align:top;">hmac_key</td><td style="vertical-align:top;">:</td><td><div>285b831e-691e-451f-9561-ee2b68714464</div></td></tr><tr><td style="font-weight:bold;vertical-align:top;">last_orderby</td><td style="vertical-align:top;">:</td><td><div>None</div></td></tr><tr><td style="font-weight:bold;vertical-align:top;">last_query</td><td style="vertical-align:top;">:</td><td><div>db.auth_membership.id&gt;0</div></td></tr></table></div>'
tRp132
sS'etype'
p133
S"<type 'exceptions.AttributeError'>"
p134
sS'date'
p135
S'Mon Nov 28 16:25:17 2016'
p136
sS'response'
p137
g56
(S'sv(\x00\x00<div><table><tr><td style="font-weight:bold;vertical-align:top;">body</td><td style="vertical-align:top;">:</td><td><div>&lt;cStringIO.StringO object at 0x114a43df8&gt;</div></td></tr><tr><td style="font-weight:bold;vertical-align:top;">cookies</td><td style="vertical-align:top;">:</td><td><div><table><tr><td style="font-weight:bold;vertical-align:top;">session_id_slugdash</td><td style="vertical-align:top;">:</td><td><div>18:04c9f2b2-5552-489c-8898-f31522c6c664<table><tr><td style="font-weight:bold;vertical-align:top;">comment</td><td style="vertical-align:top;">:</td><td><div></div></td></tr><tr><td style="font-weight:bold;vertical-align:top;">domain</td><td style="vertical-align:top;">:</td><td><div></div></td></tr><tr><td style="font-weight:bold;vertical-align:top;">expires</td><td style="vertical-align:top;">:</td><td><div></div></td></tr><tr><td style="font-weight:bold;vertical-align:top;">httponly</td><td style="vertical-align:top;">:</td><td><div></div></td></tr><tr><td style="font-weight:bold;vertical-align:top;">max-age</td><td style="vertical-align:top;">:</td><td><div></div></td></tr><tr><td style="font-weight:bold;vertical-align:top;">path</td><td style="vertical-align:top;">:</td><td><div>/</div></td></tr><tr><td style="font-weight:bold;vertical-align:top;">secure</td><td style="vertical-align:top;">:</td><td><div></div></td></tr><tr><td style="font-weight:bold;vertical-align:top;">version</td><td style="vertical-align:top;">:</td><td><div></div></td></tr></table></div></td></tr></table></div></td></tr><tr><td style="font-weight:bold;vertical-align:top;">delimiters</td><td style="vertical-align:top;">:</td><td><div><table><tr><td><div>{{</div></td></tr><tr><td><div>}}</div></td></tr></table></div></td></tr><tr><td style="font-weight:bold;vertical-align:top;">files</td><td style="vertical-align:top;">:</td><td><div><table><tr><td><div>/SlugDash/static/js/jquery.js</div></td></tr><tr><td><div>/SlugDash/static/css/calendar.css</div></td></tr><tr><td><div>/SlugDash/static/js/calendar.js</div></td></tr><tr><td><div>/SlugDash/static/js/web2py.js</div></td></tr></table></div></td></tr><tr><td style="font-weight:bold;vertical-align:top;">flash</td><td style="vertical-align:top;">:</td><td><div></div></td></tr><tr><td style="font-weight:bold;vertical-align:top;">form_label_separator</td><td style="vertical-align:top;">:</td><td><div></div></td></tr><tr><td style="font-weight:bold;vertical-align:top;">formstyle</td><td style="vertical-align:top;">:</td><td><div>bootstrap3_inline</div></td></tr><tr><td style="font-weight:bold;vertical-align:top;">generic_patterns</td><td style="vertical-align:top;">:</td><td><div><table><tr><td><div>*</div></td></tr></table></div></td></tr><tr><td style="font-weight:bold;vertical-align:top;">google_analytics_id</td><td style="vertical-align:top;">:</td><td><div>None</div></td></tr><tr><td style="font-weight:bold;vertical-align:top;">headers</td><td style="vertical-align:top;">:</td><td><div><table><tr><td style="font-weight:bold;vertical-align:top;">X-Powered-By</td><td style="vertical-align:top;">:</td><td><div>web2py</div></td></tr></table></div></td></tr><tr><td style="font-weight:bold;vertical-align:top;">logo</td><td style="vertical-align:top;">:</td><td><div><a class="navbar-brand" href="http://www.web2py.com/" id="web2py-logo"><b>web<span>2</span>py</b>&trade;&nbsp;</a></div></td></tr><tr><td style="font-weight:bold;vertical-align:top;">menu</td><td style="vertical-align:top;">:</td><td><div><table><tr><td><div><table><tr><td><div>Home</div></td></tr><tr><td><div>False</div></td></tr><tr><td><div>/SlugDash</div></td></tr><tr><td><div><table></table></div></td></tr></table></div></td></tr><tr><td><div><table><tr><td><div>View Orders</div></td></tr><tr><td><div>False</div></td></tr><tr><td><div>/SlugDash/view_orders</div></td></tr></table></div></td></tr><tr><td><div><table><tr><td><div>Manage Products</div></td></tr><tr><td><div>False</div></td></tr><tr><td><div>/SlugDash/product_management</div></td></tr></table></div></td></tr><tr><td><div><table><tr><td><div>My Sites</div></td></tr><tr><td><div>False</div></td></tr><tr><td><div>/admin/site</div></td></tr></table></div></td></tr><tr><td><div><table><tr><td><div>This App</div></td></tr><tr><td><div>False</div></td></tr><tr><td><div>#</div></td></tr><tr><td><div><table><tr><td><div><table><tr><td><div>Design</div></td></tr><tr><td><div>False</div></td></tr><tr><td><div>/admin/design/SlugDash</div></td></tr></table></div></td></tr><tr><td><div><li class="divider"></li></div></td></tr><tr><td><div><table><tr><td><div>Controller</div></td></tr><tr><td><div>False</div></td></tr><tr><td><div>/admin/edit/SlugDash/controllers/default.py</div></td></tr></table></div></td></tr><tr><td><div><table><tr><td><div>View</div></td></tr><tr><td><div>False</div></td></tr><tr><td><div>/admin/edit/SlugDash/views/default/index.html</div></td></tr></table></div></td></tr><tr><td><div><table><tr><td><div>DB Model</div></td></tr><tr><td><div>False</div></td></tr><tr><td><div>/admin/edit/SlugDash/models/db.py</div></td></tr></table></div></td></tr><tr><td><div><table><tr><td><div>Menu Model</div></td></tr><tr><td><div>False</div></td></tr><tr><td><div>/admin/edit/SlugDash/models/menu.py</div></td></tr></table></div></td></tr><tr><td><div><table><tr><td><div>Config.ini</div></td></tr><tr><td><div>False</div></td></tr><tr><td><div>/admin/edit/SlugDash/private/appconfig.ini</div></td></tr></table></div></td></tr><tr><td><div><table><tr><td><div>Layout</div></td></tr><tr><td><div>False</div></td></tr><tr><td><div>/admin/edit/SlugDash/views/layout.html</div></td></tr></table></div></td></tr><tr><td><div><table><tr><td><div>Stylesheet</div></td></tr><tr><td><div>False</div></td></tr><tr><td><div>/admin/edit/SlugDash/static/css/web2py-bootstrap3.css</div></td></tr></table></div></td></tr><tr><td><div><table><tr><td><div>Database</div></td></tr><tr><td><div>False</div></td></tr><tr><td><div>/SlugDash/appadmin</div></td></tr></table></div></td></tr><tr><td><div><table><tr><td><div>Errors</div></td></tr><tr><td><div>False</div></td></tr><tr><td><div>/admin/errors/SlugDash</div></td></tr></table></div></td></tr><tr><td><div><table><tr><td><div>About</div></td></tr><tr><td><div>False</div></td></tr><tr><td><div>/admin/about/SlugDash</div></td></tr></table></div></td></tr></table></div></td></tr></table></div></td></tr></table></div></td></tr><tr><td style="font-weight:bold;vertical-align:top;">meta</td><td style="vertical-align:top;">:</td><td><div><table><tr><td style="font-weight:bold;vertical-align:top;">author</td><td style="vertical-align:top;">:</td><td><div>Your Name &lt;you@example.com&gt;</div></td></tr><tr><td style="font-weight:bold;vertical-align:top;">description</td><td style="vertical-align:top;">:</td><td><div>a cool new app</div></td></tr><tr><td style="font-weight:bold;vertical-align:top;">generator</td><td style="vertical-align:top;">:</td><td><div>Web2py Web Framework</div></td></tr><tr><td style="font-weight:bold;vertical-align:top;">keywords</td><td style="vertical-align:top;">:</td><td><div><table><tr><td><div>web2py</div></td></tr><tr><td><div>python</div></td></tr><tr><td><div>framework</div></td></tr></table></div></td></tr></table></div></td></tr><tr><td style="font-weight:bold;vertical-align:top;">models_to_run</td><td style="vertical-align:top;">:</td><td><div><table><tr><td><div>^\\w+\\.py$</div></td></tr><tr><td><div>^default/\\w+\\.py$</div></td></tr><tr><td><div>^default/index/\\w+\\.py$</div></td></tr></table></div></td></tr><tr><td style="font-weight:bold;vertical-align:top;">postprocessing</td><td style="vertical-align:top;">:</td><td><div><table></table></div></td></tr><tr><td style="font-weight:bold;vertical-align:top;">session_client</td><td style="vertical-align:top;">:</td><td><div>127.0.0.1</div></td></tr><tr><td style="font-weight:bold;vertical-align:top;">session_cookie_compression_level</td><td style="vertical-align:top;">:</td><td><div>None</div></td></tr><tr><td style="font-weight:bold;vertical-align:top;">session_cookie_expires</td><td style="vertical-align:top;">:</td><td><div>None</div></td></tr><tr><td style="font-weight:bold;vertical-align:top;">session_data_name</td><td style="vertical-align:top;">:</td><td><div>session_data_slugdash</div></td></tr><tr><td style="font-weight:bold;vertical-align:top;">session_db_record_id</td><td style="vertical-align:top;">:</td><td><div>18L</div></td></tr><tr><td style="font-weight:bold;vertical-align:top;">session_db_table</td><td style="vertical-align:top;">:</td><td><div>&lt;Table web2py_session_SlugDash (id, locked, client_ip, created_datetime, modified_datetime, unique_key, session_data)&gt;</div></td></tr><tr><td style="font-weight:bold;vertical-align:top;">session_db_unique_key</td><td style="vertical-align:top;">:</td><td><div>04c9f2b2-5552-489c-8898-f31522c6c664</div></td></tr><tr><td style="font-weight:bold;vertical-align:top;">session_hash</td><td style="vertical-align:top;">:</td><td><div>fc57bb493f68ee003c9eb5877c999f28</div></td></tr><tr><td style="font-weight:bold;vertical-align:top;">session_id</td><td style="vertical-align:top;">:</td><td><div>18:04c9f2b2-5552-489c-8898-f31522c6c664</div></td></tr><tr><td style="font-weight:bold;vertical-align:top;">session_id_name</td><td style="vertical-align:top;">:</td><td><div>session_id_slugdash</div></td></tr><tr><td style="font-weight:bold;vertical-align:top;">session_masterapp</td><td style="vertical-align:top;">:</td><td><div>SlugDash</div></td></tr><tr><td style="font-weight:bold;vertical-align:top;">session_new</td><td style="vertical-align:top;">:</td><td><div>False</div></td></tr><tr><td style="font-weight:bold;vertical-align:top;">session_storage_type</td><td style="vertical-align:top;">:</td><td><div>db</div></td></tr><tr><td style="font-weight:bold;vertical-align:top;">status</td><td style="vertical-align:top;">:</td><td><div>200</div></td></tr><tr><td style="font-weight:bold;vertical-align:top;">subtitle</td><td style="vertical-align:top;">:</td><td><div></div></td></tr><tr><td style="font-weight:bold;vertical-align:top;">title</td><td style="vertical-align:top;">:</td><td><div>Slugdash</div></td></tr><tr><td style="font-weight:bold;vertical-align:top;">view</td><td style="vertical-align:top;">:</td><td><div>default/index.html</div></td></tr></table></div>'
tRp138
sS'locals'
p139
(dp140
S'k'
S"'membership'"
p141
sS'self'
p142
S"<Row {'first_name': 'Tajin', 'last_name': 'Marij...& Ten Circle', 'registration_key': '', 'id': 9L}>"
p143
sssS'traceback'
p144
S'Traceback (most recent call last):\n  File "/Users/kayatomic/web2py/gluon/restricted.py", line 227, in restricted\n    exec ccode in environment\n  File "/Users/kayatomic/web2py/applications/SlugDash/views/default/index.html", line 52, in <module>\n    </div>\n  File "/Users/kayatomic/web2py/gluon/packages/dal/pydal/objects.py", line 90, in __getattr__\n    raise AttributeError\nAttributeError\n'
p145
s.