(dp1
S'output'
p2
S"<class 'requests.exceptions.ConnectionError'> HTTPConnectionPool(host='luca-teaching.appspot.com', port=80): Max retries exceeded with url: /get_products (Caused by NewConnectionError('<requests.packages.urllib3.connection.HTTPConnection object at 0x11b6a2890>: Failed to establish a new connection: [Errno 8] nodename nor servname provided, or not known',))"
p3
sS'layer'
p4
S'/Users/dylansuchesk/Desktop/Ry3on_Orange_Folder/college/cmps/cmps183/web2py/applications/SlugDash/controllers/default.py'
p5
sS'code'
p6
S'# -*- coding: utf-8 -*-\n# this file is released under public domain and you can use without limitations\n\n# -------------------------------------------------------------------------\n# Sample shopping cart implementation.\n# -------------------------------------------------------------------------\n\nimport traceback\n\ndef index():\n    """\n    I am not doing anything here.  Look elsewhere.\n    """\n    return dict()\n\ndef set_timezone():\n    """Ajax call to set the timezone information for the session."""\n    tz_name = request.vars.name\n    # Validates the name.\n    from pytz import all_timezones_set\n    if tz_name in all_timezones_set:\n        session.user_timezone = tz_name\n        # If the user is logged in, sets also the timezone for the user.\n        # Otherwise, it can happen that a user expires a cookie, then click on edit.\n        # When the user is presented the edit page, the translation is done according to UTC,\n        # but when the user is done editing, due to autodetection, the user is then in\n        # it\'s own time zone, and the dates of an assignment change.\n        # This really happened.\n        if auth.user is not None:\n            db.auth_user[auth.user.id] = dict(user_timezone = tz_name)\n        logger.info("Set timezone to: %r" % tz_name)\n    else:\n        logger.warning("Invalid timezone received: %r" % tz_name)\n\n""" Old code to get product from local\ndef get_products():\n    #Gets the list of products, possibly in response to a query.\n    t = request.vars.q.strip()\n    if request.vars.q:\n        q = ((db.product.name.contains(t)) |\n             (db.product.description.contains(t)))\n    else:\n        q = db.product.id > 0\n    products = db(q).select(db.product.ALL)\n    # Fixes some fields, to make it easy on the client side.\n    # Add fields to products here.\n    for p in products:\n        p.image_url = URL(\'download\', p.image)\n        p.desired_quantity = min(1, p.quantity)\n        p.cart_quantity = 0\n    return response.json(dict(\n        products=products,\n    ))\n"""\n\n\n# Fetch products from server\ndef get_products():\n    import requests\n    r = requests.get(\'http://luca-teaching.appspot.com/get_products\')\n    result = r.json()\n    products = result[\'products\']\n    for p in products:\n        p[\'desired_quantity\'] = min(1, p[\'quantity\'])\n        p[\'cart_quantity\'] = 0\n    logged_in = auth.user_id is not None\n    return response.json(dict(products=products, logged_in=logged_in))\n\n\n# Fetch orders from server\n@auth.requires_login()\ndef get_orders():\n    orders = db(db.customer_order.user_email == auth.user.email).select(db.customer_order.ALL,\n                         orderby=~db.customer_order.order_date) # sort by order_date\n    for order in orders:\n        #order.customer_info = json.loads(order.customer_info)\n        order.cart = json.loads(order.cart)\n\n    return response.json(dict(orders=orders, ))\n\n\n# Returns a string corresponding to the user\n#   first and last names, given the user email.\ndef get_user_name_from_email(email):\n    u = db(db.auth_user.email == email).select().first()\n    if u is None:\n        return \'None\'\n    else:\n        return \' \'.join([u.first_name, u.last_name])\n\n\n@auth.requires_login()\ndef purchase():\n    """Ajax function called when a customer orders and pays for the cart."""\n    if not URL.verify(request, hmac_key=session.hmac_key):\n        raise HTTP(500)\n    #token = json.loads(request.vars.transaction_token)\n    #amount = float(request.vars.order_total)\n    # Creates the charge.\n    """ This is not working properly. Purchase does not go through\n    import stripe\n    # Your secret key.\n    stripe.api_key = "sk_test_pZ4tD6Pq0VuUCkSyXJ6Feb2T"\n    token = json.loads(request.vars.transaction_token)\n    amount = float(request.vars.order_total)\n    try:\n        charge = stripe.Charge.create(\n            amount=int(amount * 100),\n            currency="usd",\n            source=token[\'id\'],\n            description="Purchase",\n        )\n    except stripe.error.CardError as e:\n        logger.info("The card has been declined.")\n        logger.info("%r" % traceback.format_exc())\n        return "nok"\n    """\n    db.customer_order.insert(\n        customer_info=request.vars.customer_info,\n        delivery_location=request.vars.delivery_location,\n        #transaction_token=request.vars.transaction_token,\n        #order_total=request.vars.order_total,\n        #customer_name=request.vars.customer_name,\n        #user_email=request.vars.user_email,\n        #transaction_token=json.dumps(token),\n        cart=request.vars.cart)\n    return "ok"\n\n\n# Normally here we would check that the user is an admin, and do programmatic\n# APIs to add and remove products to the inventory, etc.\n#@auth.requires_membership(\'super_admin\')\ndef product_management():\n    q = db.product # This queries for all products.\n    form = SQLFORM.grid(\n        q,\n        editable=True,\n        create=True,\n        user_signature=True,\n        deletable=True,\n        details=True,\n    )\n    return dict(form=form)\n\n\n""" Viewing orders\nNeed to work on:\n    + Display what/when they ordered\n    + Display if a payment for that order is successful\n    + Create group authentication to prevent certain users from accessing this page\n    + Maybe work on improving the UI\n"""\n#@auth.requires_membership(\'super_admin\')\n#@auth.requires(auth.has_membership(group_id=\'driver\'))\ndef view_orders():\n    q = db.customer_order # This queries for all products.\n    #db.customer_order.customer_info.represent = lambda v, r: nicefy(v)\n    #db.customer_order.transaction_token.represent = lambda v, r: nicefy(v)\n    db.customer_order.cart.represent = lambda v, r: nicefy(v)\n\n    orders = db().select(db.customer_order.ALL,\n                         orderby=~db.customer_order.order_date) # sort by order_date\n\n    #db().select(db.customer_order.order_total)\n    for order in orders:\n        #order.customer_info = json.loads(order.customer_info)\n        order.cart = json.loads(order.cart)\n\n    form = SQLFORM.grid(\n        q,\n        editable=True,\n        create=True,\n        user_signature=True,\n        deletable=True,\n        details=True,\n    )\n    return dict(form=form, orders=orders)\n\n\ndef user():\n    """\n    exposes:\n    http://..../[app]/default/user/login\n    http://..../[app]/default/user/logout\n    http://..../[app]/default/user/register\n    http://..../[app]/default/user/profile\n    http://..../[app]/default/user/retrieve_password\n    http://..../[app]/default/user/change_password\n    http://..../[app]/default/user/bulk_register\n    use @auth.requires_login()\n        @auth.requires_membership(\'group name\')\n        @auth.requires_permission(\'read\',\'table name\',record_id)\n    to decorate functions that need access control\n    also notice there is http://..../[app]/appadmin/manage/auth to allow administrator to manage users\n    """\n    return dict(form=auth())\n\n\n@cache.action()\ndef download():\n    """\n    allows downloading of uploaded files\n    http://..../[app]/default/download/[filename]\n    """\n    return response.download(request, db)\n\n\ndef call():\n    """\n    exposes services. for example:\n    http://..../[app]/default/call/jsonrpc\n    decorate with @services.jsonrpc the functions to expose\n    supports xml, json, xmlrpc, jsonrpc, amfrpc, rss, csv\n    """\n    return service()\n\nresponse._vars=response._caller(get_products)\n'
p7
sS'snapshot'
p8
(dp9
S'exception'
p10
(dp11
S'__module__'
p12
S"'requests.exceptions'"
p13
sS'__getslice__'
p14
S"<method-wrapper '__getslice__' of ConnectionError object>"
p15
sS'__str__'
p16
S"<method-wrapper '__str__' of ConnectionError object>"
p17
sS'__reduce__'
p18
S'<built-in method __reduce__ of ConnectionError object>'
p19
sS'__dict__'
p20
S"{'request': <PreparedRequest [GET]>, 'response': None}"
p21
sS'__sizeof__'
p22
S'<built-in method __sizeof__ of ConnectionError object>'
p23
sS'__weakref__'
p24
S'None'
p25
sS'__init__'
p26
S'<bound method ConnectionError.__init__ of Connec...ame nor servname provided, or not known\',))",),)>'
p27
sS'__setattr__'
p28
S"<method-wrapper '__setattr__' of ConnectionError object>"
p29
sS'__reduce_ex__'
p30
S'<built-in method __reduce_ex__ of ConnectionError object>'
p31
sS'__new__'
p32
S'<built-in method __new__ of type object>'
p33
sS'errno'
p34
S'None'
p35
sS'__format__'
p36
S'<built-in method __format__ of ConnectionError object>'
p37
sS'__class__'
p38
S"<class 'requests.exceptions.ConnectionError'>"
p39
sS'filename'
p40
S'None'
p41
sS'__doc__'
p42
S"'A Connection error occurred.'"
p43
sS'__getitem__'
p44
S"<method-wrapper '__getitem__' of ConnectionError object>"
p45
sS'__setstate__'
p46
S'<built-in method __setstate__ of ConnectionError object>'
p47
sS'__getattribute__'
p48
S"<method-wrapper '__getattribute__' of ConnectionError object>"
p49
sS'args'
p50
S'(MaxRetryError("HTTPConnectionPool(host=\'luca-tea...dename nor servname provided, or not known\',))",),)'
p51
sS'__subclasshook__'
p52
S'<built-in method __subclasshook__ of type object>'
p53
sS'response'
p54
S'None'
p55
sS'__unicode__'
p56
S'<built-in method __unicode__ of ConnectionError object>'
p57
sS'request'
p58
S'<PreparedRequest [GET]>'
p59
sS'strerror'
p60
S'None'
p61
sS'__delattr__'
p62
S"<method-wrapper '__delattr__' of ConnectionError object>"
p63
sS'__repr__'
p64
S"<method-wrapper '__repr__' of ConnectionError object>"
p65
sS'__hash__'
p66
S"<method-wrapper '__hash__' of ConnectionError object>"
p67
ssS'evalue'
p68
S"HTTPConnectionPool(host='luca-teaching.appspot.com', port=80): Max retries exceeded with url: /get_products (Caused by NewConnectionError('<requests.packages.urllib3.connection.HTTPConnection object at 0x11b6a2890>: Failed to establish a new connection: [Errno 8] nodename nor servname provided, or not known',))"
p69
sg58
cgluon.html
XML_unpickle
p70
(S's$m\x00\x00<div><table><tr><td style="font-weight:bold;vertical-align:top;">ajax</td><td style="vertical-align:top;">:</td><td><div>True</div></td></tr><tr><td style="font-weight:bold;vertical-align:top;">application</td><td style="vertical-align:top;">:</td><td><div>SlugDash</div></td></tr><tr><td style="font-weight:bold;vertical-align:top;">args</td><td style="vertical-align:top;">:</td><td><div><table></table></div></td></tr><tr><td style="font-weight:bold;vertical-align:top;">cid</td><td style="vertical-align:top;">:</td><td><div>None</div></td></tr><tr><td style="font-weight:bold;vertical-align:top;">client</td><td style="vertical-align:top;">:</td><td><div>127.0.0.1</div></td></tr><tr><td style="font-weight:bold;vertical-align:top;">controller</td><td style="vertical-align:top;">:</td><td><div>default</div></td></tr><tr><td style="font-weight:bold;vertical-align:top;">cookies</td><td style="vertical-align:top;">:</td><td><div><table><tr><td style="font-weight:bold;vertical-align:top;">session_id_admin</td><td style="vertical-align:top;">:</td><td><div>127.0.0.1-d182b209-f7c9-4e7c-aa22-5608f6803933<table><tr><td style="font-weight:bold;vertical-align:top;">comment</td><td style="vertical-align:top;">:</td><td><div></div></td></tr><tr><td style="font-weight:bold;vertical-align:top;">domain</td><td style="vertical-align:top;">:</td><td><div></div></td></tr><tr><td style="font-weight:bold;vertical-align:top;">expires</td><td style="vertical-align:top;">:</td><td><div></div></td></tr><tr><td style="font-weight:bold;vertical-align:top;">httponly</td><td style="vertical-align:top;">:</td><td><div></div></td></tr><tr><td style="font-weight:bold;vertical-align:top;">max-age</td><td style="vertical-align:top;">:</td><td><div></div></td></tr><tr><td style="font-weight:bold;vertical-align:top;">path</td><td style="vertical-align:top;">:</td><td><div></div></td></tr><tr><td style="font-weight:bold;vertical-align:top;">secure</td><td style="vertical-align:top;">:</td><td><div></div></td></tr><tr><td style="font-weight:bold;vertical-align:top;">version</td><td style="vertical-align:top;">:</td><td><div></div></td></tr></table></div></td></tr><tr><td style="font-weight:bold;vertical-align:top;">session_id_slugdash</td><td style="vertical-align:top;">:</td><td><div>28:7945adff-bc18-4c3c-b4d1-6744acccd957<table><tr><td style="font-weight:bold;vertical-align:top;">comment</td><td style="vertical-align:top;">:</td><td><div></div></td></tr><tr><td style="font-weight:bold;vertical-align:top;">domain</td><td style="vertical-align:top;">:</td><td><div></div></td></tr><tr><td style="font-weight:bold;vertical-align:top;">expires</td><td style="vertical-align:top;">:</td><td><div></div></td></tr><tr><td style="font-weight:bold;vertical-align:top;">httponly</td><td style="vertical-align:top;">:</td><td><div></div></td></tr><tr><td style="font-weight:bold;vertical-align:top;">max-age</td><td style="vertical-align:top;">:</td><td><div></div></td></tr><tr><td style="font-weight:bold;vertical-align:top;">path</td><td style="vertical-align:top;">:</td><td><div></div></td></tr><tr><td style="font-weight:bold;vertical-align:top;">secure</td><td style="vertical-align:top;">:</td><td><div></div></td></tr><tr><td style="font-weight:bold;vertical-align:top;">version</td><td style="vertical-align:top;">:</td><td><div></div></td></tr></table></div></td></tr><tr><td style="font-weight:bold;vertical-align:top;">session_id_uhh_hw3</td><td style="vertical-align:top;">:</td><td><div>9:66f65572-97f4-4310-9920-7847e9e931d3<table><tr><td style="font-weight:bold;vertical-align:top;">comment</td><td style="vertical-align:top;">:</td><td><div></div></td></tr><tr><td style="font-weight:bold;vertical-align:top;">domain</td><td style="vertical-align:top;">:</td><td><div></div></td></tr><tr><td style="font-weight:bold;vertical-align:top;">expires</td><td style="vertical-align:top;">:</td><td><div></div></td></tr><tr><td style="font-weight:bold;vertical-align:top;">httponly</td><td style="vertical-align:top;">:</td><td><div></div></td></tr><tr><td style="font-weight:bold;vertical-align:top;">max-age</td><td style="vertical-align:top;">:</td><td><div></div></td></tr><tr><td style="font-weight:bold;vertical-align:top;">path</td><td style="vertical-align:top;">:</td><td><div></div></td></tr><tr><td style="font-weight:bold;vertical-align:top;">secure</td><td style="vertical-align:top;">:</td><td><div></div></td></tr><tr><td style="font-weight:bold;vertical-align:top;">version</td><td style="vertical-align:top;">:</td><td><div></div></td></tr></table></div></td></tr><tr><td style="font-weight:bold;vertical-align:top;">session_id_uhhhh_hw3</td><td style="vertical-align:top;">:</td><td><div>3:25ff1958-9388-4c67-b594-15734947e5cc<table><tr><td style="font-weight:bold;vertical-align:top;">comment</td><td style="vertical-align:top;">:</td><td><div></div></td></tr><tr><td style="font-weight:bold;vertical-align:top;">domain</td><td style="vertical-align:top;">:</td><td><div></div></td></tr><tr><td style="font-weight:bold;vertical-align:top;">expires</td><td style="vertical-align:top;">:</td><td><div></div></td></tr><tr><td style="font-weight:bold;vertical-align:top;">httponly</td><td style="vertical-align:top;">:</td><td><div></div></td></tr><tr><td style="font-weight:bold;vertical-align:top;">max-age</td><td style="vertical-align:top;">:</td><td><div></div></td></tr><tr><td style="font-weight:bold;vertical-align:top;">path</td><td style="vertical-align:top;">:</td><td><div></div></td></tr><tr><td style="font-weight:bold;vertical-align:top;">secure</td><td style="vertical-align:top;">:</td><td><div></div></td></tr><tr><td style="font-weight:bold;vertical-align:top;">version</td><td style="vertical-align:top;">:</td><td><div></div></td></tr></table></div></td></tr><tr><td style="font-weight:bold;vertical-align:top;">session_id_welcome</td><td style="vertical-align:top;">:</td><td><div>127.0.0.1-32e5ace5-b761-49ea-bd84-ed1c549f7650<table><tr><td style="font-weight:bold;vertical-align:top;">comment</td><td style="vertical-align:top;">:</td><td><div></div></td></tr><tr><td style="font-weight:bold;vertical-align:top;">domain</td><td style="vertical-align:top;">:</td><td><div></div></td></tr><tr><td style="font-weight:bold;vertical-align:top;">expires</td><td style="vertical-align:top;">:</td><td><div></div></td></tr><tr><td style="font-weight:bold;vertical-align:top;">httponly</td><td style="vertical-align:top;">:</td><td><div></div></td></tr><tr><td style="font-weight:bold;vertical-align:top;">max-age</td><td style="vertical-align:top;">:</td><td><div></div></td></tr><tr><td style="font-weight:bold;vertical-align:top;">path</td><td style="vertical-align:top;">:</td><td><div></div></td></tr><tr><td style="font-weight:bold;vertical-align:top;">secure</td><td style="vertical-align:top;">:</td><td><div></div></td></tr><tr><td style="font-weight:bold;vertical-align:top;">version</td><td style="vertical-align:top;">:</td><td><div></div></td></tr></table></div></td></tr></table></div></td></tr><tr><td style="font-weight:bold;vertical-align:top;">env</td><td style="vertical-align:top;">:</td><td><div><table><tr><td style="font-weight:bold;vertical-align:top;">HTTP_ACCEPT</td><td style="vertical-align:top;">:</td><td><div>application/json, text/javascript, */*; q=0.01</div></td></tr><tr><td style="font-weight:bold;vertical-align:top;">HTTP_ACCEPT_ENCODING</td><td style="vertical-align:top;">:</td><td><div>gzip, deflate, sdch</div></td></tr><tr><td style="font-weight:bold;vertical-align:top;">HTTP_ACCEPT_LANGUAGE</td><td style="vertical-align:top;">:</td><td><div>en-US,en;q=0.8</div></td></tr><tr><td style="font-weight:bold;vertical-align:top;">HTTP_CACHE_CONTROL</td><td style="vertical-align:top;">:</td><td><div>max-age=0</div></td></tr><tr><td style="font-weight:bold;vertical-align:top;">HTTP_CONNECTION</td><td style="vertical-align:top;">:</td><td><div>keep-alive</div></td></tr><tr><td style="font-weight:bold;vertical-align:top;">HTTP_COOKIE</td><td style="vertical-align:top;">:</td><td><div>session_id_welcome=127.0.0.1-32e5ace5-b761-49ea-bd84-ed1c549f7650; session_id_uhhhh_hw3=&quot;3:25ff1958-9388-4c67-b594-15734947e5cc&quot;; session_id_admin=127.0.0.1-d182b209-f7c9-4e7c-aa22-5608f6803933; session_id_uhh_hw3=&quot;9:66f65572-97f4-4310-9920-7847e9e931d3&quot;; session_id_slugdash=&quot;28:7945adff-bc18-4c3c-b4d1-6744acccd957&quot;</div></td></tr><tr><td style="font-weight:bold;vertical-align:top;">HTTP_HOST</td><td style="vertical-align:top;">:</td><td><div>127.0.0.1:8000</div></td></tr><tr><td style="font-weight:bold;vertical-align:top;">HTTP_REFERER</td><td style="vertical-align:top;">:</td><td><div>http://127.0.0.1:8000/SlugDash/default/index</div></td></tr><tr><td style="font-weight:bold;vertical-align:top;">HTTP_USER_AGENT</td><td style="vertical-align:top;">:</td><td><div>Mozilla/5.0 (Macintosh; Intel Mac OS X 10_6_8) AppleWebKit/537.36 (KHTML, like Gecko) Chrome/49.0.2623.112 Safari/537.36</div></td></tr><tr><td style="font-weight:bold;vertical-align:top;">HTTP_X_REQUESTED_WITH</td><td style="vertical-align:top;">:</td><td><div>XMLHttpRequest</div></td></tr><tr><td style="font-weight:bold;vertical-align:top;">PATH_INFO</td><td style="vertical-align:top;">:</td><td><div>/SlugDash/default/get_products</div></td></tr><tr><td style="font-weight:bold;vertical-align:top;">QUERY_STRING</td><td style="vertical-align:top;">:</td><td><div>q=</div></td></tr><tr><td style="font-weight:bold;vertical-align:top;">REMOTE_ADDR</td><td style="vertical-align:top;">:</td><td><div>127.0.0.1</div></td></tr><tr><td style="font-weight:bold;vertical-align:top;">REMOTE_PORT</td><td style="vertical-align:top;">:</td><td><div>53630</div></td></tr><tr><td style="font-weight:bold;vertical-align:top;">REQUEST_METHOD</td><td style="vertical-align:top;">:</td><td><div>GET</div></td></tr><tr><td style="font-weight:bold;vertical-align:top;">SCRIPT_NAME</td><td style="vertical-align:top;">:</td><td><div></div></td></tr><tr><td style="font-weight:bold;vertical-align:top;">SERVER_NAME</td><td style="vertical-align:top;">:</td><td><div>Dylan-Suchesks-MacBook-Pro-2.local</div></td></tr><tr><td style="font-weight:bold;vertical-align:top;">SERVER_PORT</td><td style="vertical-align:top;">:</td><td><div>8000</div></td></tr><tr><td style="font-weight:bold;vertical-align:top;">SERVER_PROTOCOL</td><td style="vertical-align:top;">:</td><td><div>HTTP/1.1</div></td></tr><tr><td style="font-weight:bold;vertical-align:top;">SERVER_SOFTWARE</td><td style="vertical-align:top;">:</td><td><div>Rocket 1.2.6</div></td></tr><tr><td style="font-weight:bold;vertical-align:top;">app_folders</td><td style="vertical-align:top;">:</td><td><div>set([&#x27;/Users/dylansuchesk/Desktop/Ry3on_Orange_Folder/college/cmps/cmps183/web2py/applications/welcome/&#x27;, &#x27;/Users/dylansuchesk/Desktop/Ry3on_Orange_Folder/college/cmps/cmps183/web2py/applications/uhh_hw3/&#x27;, &#x27;/Users/dylansuchesk/Desktop/Ry3on_Orange_Folder/college/cmps/cmps183/web2py/applications/SlugDash/&#x27;, &#x27;/Users/dylansuchesk/Desktop/Ry3on_Orange_Folder/college/cmps/cmps183/web2py/applications/uhhhh_hw3/&#x27;, &#x27;/Users/dylansuchesk/Desktop/Ry3on_Orange_Folder/college/cmps/cmps183/web2py/applications/admin/&#x27;])</div></td></tr><tr><td style="font-weight:bold;vertical-align:top;">applications_parent</td><td style="vertical-align:top;">:</td><td><div>/Users/dylansuchesk/Desktop/Ry3on_Orange_Folder/college/cmps/cmps183/web2py</div></td></tr><tr><td style="font-weight:bold;vertical-align:top;">cmd_args</td><td style="vertical-align:top;">:</td><td><div><table></table></div></td></tr><tr><td style="font-weight:bold;vertical-align:top;">cmd_options</td><td style="vertical-align:top;">:</td><td><div>&lt;Values at 0x101f94ef0: {&#x27;verbose&#x27;: False, &#x27;ip&#x27;: &#x27;127.0.0.1&#x27;, &#x27;debuglevel&#x27;: 30, &#x27;with_scheduler&#x27;: False, &#x27;shutdown_timeout&#x27;: 5, &#x27;taskbar&#x27;: False, &#x27;with_coverage&#x27;: False, &#x27;pid_filename&#x27;: &#x27;httpserver.pid&#x27;, &#x27;maxthreads&#x27;: None, &#x27;softcron&#x27;: False, &#x27;server_name&#x27;: &#x27;Dylan-Suchesks-MacBook-Pro-2.local&#x27;, &#x27;bpython&#x27;: False, &#x27;nogui&#x27;: False, &#x27;port&#x27;: 8000, &#x27;print_errors&#x27;: False, &#x27;extcron&#x27;: False, &#x27;runcron&#x27;: False, &#x27;run_system_tests&#x27;: False, &#x27;test&#x27;: None, &#x27;folder&#x27;: &#x27;/Users/dylansuchesk/Desktop/Ry3on_Orange_Folder/college/cmps/cmps183/web2py&#x27;, &#x27;config&#x27;: &#x27;&#x27;, &#x27;minthreads&#x27;: None, &#x27;shell&#x27;: None, &#x27;run&#x27;: &#x27;&#x27;, &#x27;log_filename&#x27;: &#x27;httpserver.log&#x27;, &#x27;profiler_dir&#x27;: None, &#x27;args&#x27;: [&#x27;&#x27;], &#x27;socket_timeout&#x27;: 5, &#x27;ssl_ca_certificate&#x27;: None, &#x27;scheduler&#x27;: None, &#x27;interfaces&#x27;: None, &#x27;ssl_private_key&#x27;: &#x27;&#x27;, &#x27;gae&#x27;: None, &#x27;password&#x27;: &#x27;******&#x27;, &#x27;request_queue_size&#x27;: 5, &#x27;ssl_certificate&#x27;: &#x27;&#x27;, &#x27;cronjob&#x27;: False, &#x27;numthreads&#x27;: None, &#x27;quiet&#x27;: False, &#x27;import_models&#x27;: False, &#x27;timeout&#x27;: 10, &#x27;plain&#x27;: False, &#x27;nobanner&#x27;: False}&gt;</div></td></tr><tr><td style="font-weight:bold;vertical-align:top;">db_sessions</td><td style="vertical-align:top;">:</td><td><div>set([&#x27;uhh_hw3&#x27;, &#x27;SlugDash&#x27;, &#x27;uhhhh_hw3&#x27;])</div></td></tr><tr><td style="font-weight:bold;vertical-align:top;">debugging</td><td style="vertical-align:top;">:</td><td><div>True</div></td></tr><tr><td style="font-weight:bold;vertical-align:top;">gluon_parent</td><td style="vertical-align:top;">:</td><td><div>/Users/dylansuchesk/Desktop/Ry3on_Orange_Folder/college/cmps/cmps183/web2py</div></td></tr><tr><td style="font-weight:bold;vertical-align:top;">http_accept</td><td style="vertical-align:top;">:</td><td><div>application/json, text/javascript, */*; q=0.01</div></td></tr><tr><td style="font-weight:bold;vertical-align:top;">http_accept_encoding</td><td style="vertical-align:top;">:</td><td><div>gzip, deflate, sdch</div></td></tr><tr><td style="font-weight:bold;vertical-align:top;">http_accept_language</td><td style="vertical-align:top;">:</td><td><div>en-US,en;q=0.8</div></td></tr><tr><td style="font-weight:bold;vertical-align:top;">http_cache_control</td><td style="vertical-align:top;">:</td><td><div>max-age=0</div></td></tr><tr><td style="font-weight:bold;vertical-align:top;">http_connection</td><td style="vertical-align:top;">:</td><td><div>keep-alive</div></td></tr><tr><td style="font-weight:bold;vertical-align:top;">http_cookie</td><td style="vertical-align:top;">:</td><td><div>session_id_welcome=127.0.0.1-32e5ace5-b761-49ea-bd84-ed1c549f7650; session_id_uhhhh_hw3=&quot;3:25ff1958-9388-4c67-b594-15734947e5cc&quot;; session_id_admin=127.0.0.1-d182b209-f7c9-4e7c-aa22-5608f6803933; session_id_uhh_hw3=&quot;9:66f65572-97f4-4310-9920-7847e9e931d3&quot;; session_id_slugdash=&quot;28:7945adff-bc18-4c3c-b4d1-6744acccd957&quot;</div></td></tr><tr><td style="font-weight:bold;vertical-align:top;">http_host</td><td style="vertical-align:top;">:</td><td><div>127.0.0.1:8000</div></td></tr><tr><td style="font-weight:bold;vertical-align:top;">http_referer</td><td style="vertical-align:top;">:</td><td><div>http://127.0.0.1:8000/SlugDash/default/index</div></td></tr><tr><td style="font-weight:bold;vertical-align:top;">http_user_agent</td><td style="vertical-align:top;">:</td><td><div>Mozilla/5.0 (Macintosh; Intel Mac OS X 10_6_8) AppleWebKit/537.36 (KHTML, like Gecko) Chrome/49.0.2623.112 Safari/537.36</div></td></tr><tr><td style="font-weight:bold;vertical-align:top;">http_x_requested_with</td><td style="vertical-align:top;">:</td><td><div>XMLHttpRequest</div></td></tr><tr><td style="font-weight:bold;vertical-align:top;">is_jython</td><td style="vertical-align:top;">:</td><td><div>False</div></td></tr><tr><td style="font-weight:bold;vertical-align:top;">is_pypy</td><td style="vertical-align:top;">:</td><td><div>False</div></td></tr><tr><td style="font-weight:bold;vertical-align:top;">is_source</td><td style="vertical-align:top;">:</td><td><div>True</div></td></tr><tr><td style="font-weight:bold;vertical-align:top;">local_hosts</td><td style="vertical-align:top;">:</td><td><div><table><tr><td><div>fe80::cabc:c8ff:fee8:3a%en1</div></td></tr><tr><td><div>::ffff:127.0.0.1</div></td></tr><tr><td><div>::1</div></td></tr><tr><td><div>Dylan-Suchesks-MacBook-Pro-2.local</div></td></tr><tr><td><div>192.168.1.166</div></td></tr><tr><td><div>127.0.0.1</div></td></tr></table></div></td></tr><tr><td style="font-weight:bold;vertical-align:top;">path_info</td><td style="vertical-align:top;">:</td><td><div>/SlugDash/default/get_products</div></td></tr><tr><td style="font-weight:bold;vertical-align:top;">query_string</td><td style="vertical-align:top;">:</td><td><div>q=</div></td></tr><tr><td style="font-weight:bold;vertical-align:top;">remote_addr</td><td style="vertical-align:top;">:</td><td><div>127.0.0.1</div></td></tr><tr><td style="font-weight:bold;vertical-align:top;">remote_port</td><td style="vertical-align:top;">:</td><td><div>53630</div></td></tr><tr><td style="font-weight:bold;vertical-align:top;">request_method</td><td style="vertical-align:top;">:</td><td><div>GET</div></td></tr><tr><td style="font-weight:bold;vertical-align:top;">request_uri</td><td style="vertical-align:top;">:</td><td><div>/SlugDash/default/get_products?q=</div></td></tr><tr><td style="font-weight:bold;vertical-align:top;">script_name</td><td style="vertical-align:top;">:</td><td><div></div></td></tr><tr><td style="font-weight:bold;vertical-align:top;">server_name</td><td style="vertical-align:top;">:</td><td><div>Dylan-Suchesks-MacBook-Pro-2.local</div></td></tr><tr><td style="font-weight:bold;vertical-align:top;">server_port</td><td style="vertical-align:top;">:</td><td><div>8000</div></td></tr><tr><td style="font-weight:bold;vertical-align:top;">server_protocol</td><td style="vertical-align:top;">:</td><td><div>HTTP/1.1</div></td></tr><tr><td style="font-weight:bold;vertical-align:top;">server_software</td><td style="vertical-align:top;">:</td><td><div>Rocket 1.2.6</div></td></tr><tr><td style="font-weight:bold;vertical-align:top;">web2py_path</td><td style="vertical-align:top;">:</td><td><div>/Users/dylansuchesk/Desktop/Ry3on_Orange_Folder/college/cmps/cmps183/web2py</div></td></tr><tr><td style="font-weight:bold;vertical-align:top;">web2py_version</td><td style="vertical-align:top;">:</td><td><div>2.14.6-stable+timestamp.2016.05.10.00.21.47</div></td></tr><tr><td style="font-weight:bold;vertical-align:top;">wsgi.errors</td><td style="vertical-align:top;">:</td><td><div>&lt;open file &#x27;&lt;stderr&gt;&#x27;, mode &#x27;w&#x27; at 0x1002ab1e0&gt;</div></td></tr><tr><td style="font-weight:bold;vertical-align:top;">wsgi.file_wrapper</td><td style="vertical-align:top;">:</td><td><div>&lt;class wsgiref.util.FileWrapper at 0x101f348d8&gt;</div></td></tr><tr><td style="font-weight:bold;vertical-align:top;">wsgi.input</td><td style="vertical-align:top;">:</td><td><div>&lt;socket._fileobject object at 0x11b57a050&gt;</div></td></tr><tr><td style="font-weight:bold;vertical-align:top;">wsgi.multiprocess</td><td style="vertical-align:top;">:</td><td><div>False</div></td></tr><tr><td style="font-weight:bold;vertical-align:top;">wsgi.multithread</td><td style="vertical-align:top;">:</td><td><div>True</div></td></tr><tr><td style="font-weight:bold;vertical-align:top;">wsgi.run_once</td><td style="vertical-align:top;">:</td><td><div>False</div></td></tr><tr><td style="font-weight:bold;vertical-align:top;">wsgi.url_scheme</td><td style="vertical-align:top;">:</td><td><div>http</div></td></tr><tr><td style="font-weight:bold;vertical-align:top;">wsgi.version</td><td style="vertical-align:top;">:</td><td><div><table><tr><td><div>1</div></td></tr><tr><td><div>0</div></td></tr></table></div></td></tr><tr><td style="font-weight:bold;vertical-align:top;">wsgi_errors</td><td style="vertical-align:top;">:</td><td><div>&lt;open file &#x27;&lt;stderr&gt;&#x27;, mode &#x27;w&#x27; at 0x1002ab1e0&gt;</div></td></tr><tr><td style="font-weight:bold;vertical-align:top;">wsgi_file_wrapper</td><td style="vertical-align:top;">:</td><td><div>&lt;class wsgiref.util.FileWrapper at 0x101f348d8&gt;</div></td></tr><tr><td style="font-weight:bold;vertical-align:top;">wsgi_input</td><td style="vertical-align:top;">:</td><td><div>&lt;socket._fileobject object at 0x11b57a050&gt;</div></td></tr><tr><td style="font-weight:bold;vertical-align:top;">wsgi_multiprocess</td><td style="vertical-align:top;">:</td><td><div>False</div></td></tr><tr><td style="font-weight:bold;vertical-align:top;">wsgi_multithread</td><td style="vertical-align:top;">:</td><td><div>True</div></td></tr><tr><td style="font-weight:bold;vertical-align:top;">wsgi_run_once</td><td style="vertical-align:top;">:</td><td><div>False</div></td></tr><tr><td style="font-weight:bold;vertical-align:top;">wsgi_url_scheme</td><td style="vertical-align:top;">:</td><td><div>http</div></td></tr><tr><td style="font-weight:bold;vertical-align:top;">wsgi_version</td><td style="vertical-align:top;">:</td><td><div><table><tr><td><div>1</div></td></tr><tr><td><div>0</div></td></tr></table></div></td></tr></table></div></td></tr><tr><td style="font-weight:bold;vertical-align:top;">extension</td><td style="vertical-align:top;">:</td><td><div>html</div></td></tr><tr><td style="font-weight:bold;vertical-align:top;">folder</td><td style="vertical-align:top;">:</td><td><div>/Users/dylansuchesk/Desktop/Ry3on_Orange_Folder/college/cmps/cmps183/web2py/applications/SlugDash/</div></td></tr><tr><td style="font-weight:bold;vertical-align:top;">function</td><td style="vertical-align:top;">:</td><td><div>get_products</div></td></tr><tr><td style="font-weight:bold;vertical-align:top;">global_settings</td><td style="vertical-align:top;">:</td><td><div><table><tr><td style="font-weight:bold;vertical-align:top;">app_folders</td><td style="vertical-align:top;">:</td><td><div>set([&#x27;/Users/dylansuchesk/Desktop/Ry3on_Orange_Folder/college/cmps/cmps183/web2py/applications/welcome/&#x27;, &#x27;/Users/dylansuchesk/Desktop/Ry3on_Orange_Folder/college/cmps/cmps183/web2py/applications/uhh_hw3/&#x27;, &#x27;/Users/dylansuchesk/Desktop/Ry3on_Orange_Folder/college/cmps/cmps183/web2py/applications/SlugDash/&#x27;, &#x27;/Users/dylansuchesk/Desktop/Ry3on_Orange_Folder/college/cmps/cmps183/web2py/applications/uhhhh_hw3/&#x27;, &#x27;/Users/dylansuchesk/Desktop/Ry3on_Orange_Folder/college/cmps/cmps183/web2py/applications/admin/&#x27;])</div></td></tr><tr><td style="font-weight:bold;vertical-align:top;">applications_parent</td><td style="vertical-align:top;">:</td><td><div>/Users/dylansuchesk/Desktop/Ry3on_Orange_Folder/college/cmps/cmps183/web2py</div></td></tr><tr><td style="font-weight:bold;vertical-align:top;">cmd_args</td><td style="vertical-align:top;">:</td><td><div><table></table></div></td></tr><tr><td style="font-weight:bold;vertical-align:top;">cmd_options</td><td style="vertical-align:top;">:</td><td><div>&lt;Values at 0x101f94ef0: {&#x27;verbose&#x27;: False, &#x27;ip&#x27;: &#x27;127.0.0.1&#x27;, &#x27;debuglevel&#x27;: 30, &#x27;with_scheduler&#x27;: False, &#x27;shutdown_timeout&#x27;: 5, &#x27;taskbar&#x27;: False, &#x27;with_coverage&#x27;: False, &#x27;pid_filename&#x27;: &#x27;httpserver.pid&#x27;, &#x27;maxthreads&#x27;: None, &#x27;softcron&#x27;: False, &#x27;server_name&#x27;: &#x27;Dylan-Suchesks-MacBook-Pro-2.local&#x27;, &#x27;bpython&#x27;: False, &#x27;nogui&#x27;: False, &#x27;port&#x27;: 8000, &#x27;print_errors&#x27;: False, &#x27;extcron&#x27;: False, &#x27;runcron&#x27;: False, &#x27;run_system_tests&#x27;: False, &#x27;test&#x27;: None, &#x27;folder&#x27;: &#x27;/Users/dylansuchesk/Desktop/Ry3on_Orange_Folder/college/cmps/cmps183/web2py&#x27;, &#x27;config&#x27;: &#x27;&#x27;, &#x27;minthreads&#x27;: None, &#x27;shell&#x27;: None, &#x27;run&#x27;: &#x27;&#x27;, &#x27;log_filename&#x27;: &#x27;httpserver.log&#x27;, &#x27;profiler_dir&#x27;: None, &#x27;args&#x27;: [&#x27;&#x27;], &#x27;socket_timeout&#x27;: 5, &#x27;ssl_ca_certificate&#x27;: None, &#x27;scheduler&#x27;: None, &#x27;interfaces&#x27;: None, &#x27;ssl_private_key&#x27;: &#x27;&#x27;, &#x27;gae&#x27;: None, &#x27;password&#x27;: &#x27;******&#x27;, &#x27;request_queue_size&#x27;: 5, &#x27;ssl_certificate&#x27;: &#x27;&#x27;, &#x27;cronjob&#x27;: False, &#x27;numthreads&#x27;: None, &#x27;quiet&#x27;: False, &#x27;import_models&#x27;: False, &#x27;timeout&#x27;: 10, &#x27;plain&#x27;: False, &#x27;nobanner&#x27;: False}&gt;</div></td></tr><tr><td style="font-weight:bold;vertical-align:top;">db_sessions</td><td style="vertical-align:top;">:</td><td><div>set([&#x27;uhh_hw3&#x27;, &#x27;SlugDash&#x27;, &#x27;uhhhh_hw3&#x27;])</div></td></tr><tr><td style="font-weight:bold;vertical-align:top;">debugging</td><td style="vertical-align:top;">:</td><td><div>True</div></td></tr><tr><td style="font-weight:bold;vertical-align:top;">gluon_parent</td><td style="vertical-align:top;">:</td><td><div>/Users/dylansuchesk/Desktop/Ry3on_Orange_Folder/college/cmps/cmps183/web2py</div></td></tr><tr><td style="font-weight:bold;vertical-align:top;">is_jython</td><td style="vertical-align:top;">:</td><td><div>False</div></td></tr><tr><td style="font-weight:bold;vertical-align:top;">is_pypy</td><td style="vertical-align:top;">:</td><td><div>False</div></td></tr><tr><td style="font-weight:bold;vertical-align:top;">is_source</td><td style="vertical-align:top;">:</td><td><div>True</div></td></tr><tr><td style="font-weight:bold;vertical-align:top;">local_hosts</td><td style="vertical-align:top;">:</td><td><div><table><tr><td><div>fe80::cabc:c8ff:fee8:3a%en1</div></td></tr><tr><td><div>::ffff:127.0.0.1</div></td></tr><tr><td><div>::1</div></td></tr><tr><td><div>Dylan-Suchesks-MacBook-Pro-2.local</div></td></tr><tr><td><div>192.168.1.166</div></td></tr><tr><td><div>127.0.0.1</div></td></tr></table></div></td></tr><tr><td style="font-weight:bold;vertical-align:top;">web2py_version</td><td style="vertical-align:top;">:</td><td><div>2.14.6-stable+timestamp.2016.05.10.00.21.47</div></td></tr></table></div></td></tr><tr><td style="font-weight:bold;vertical-align:top;">is_https</td><td style="vertical-align:top;">:</td><td><div>False</div></td></tr><tr><td style="font-weight:bold;vertical-align:top;">is_local</td><td style="vertical-align:top;">:</td><td><div>True</div></td></tr><tr><td style="font-weight:bold;vertical-align:top;">is_restful</td><td style="vertical-align:top;">:</td><td><div>False</div></td></tr><tr><td style="font-weight:bold;vertical-align:top;">is_scheduler</td><td style="vertical-align:top;">:</td><td><div>False</div></td></tr><tr><td style="font-weight:bold;vertical-align:top;">is_shell</td><td style="vertical-align:top;">:</td><td><div>False</div></td></tr><tr><td style="font-weight:bold;vertical-align:top;">now</td><td style="vertical-align:top;">:</td><td><div>datetime.datetime(2016, 12, 2, 21, 8, 35, 134214)</div></td></tr><tr><td style="font-weight:bold;vertical-align:top;">raw_args</td><td style="vertical-align:top;">:</td><td><div></div></td></tr><tr><td style="font-weight:bold;vertical-align:top;">raw_extension</td><td style="vertical-align:top;">:</td><td><div>None</div></td></tr><tr><td style="font-weight:bold;vertical-align:top;">url</td><td style="vertical-align:top;">:</td><td><div>/SlugDash/default/get_products</div></td></tr><tr><td style="font-weight:bold;vertical-align:top;">utcnow</td><td style="vertical-align:top;">:</td><td><div>datetime.datetime(2016, 12, 3, 5, 8, 35, 134228)</div></td></tr><tr><td style="font-weight:bold;vertical-align:top;">wsgi</td><td style="vertical-align:top;">:</td><td><div>&lt;gluon.main.LazyWSGI object at 0x11b6560d0&gt;</div></td></tr></table></div>'
tRp71
sS'frames'
p72
(lp73
(dp74
S'file'
p75
S'/Users/dylansuchesk/Desktop/Ry3on_Orange_Folder/college/cmps/cmps183/web2py/gluon/restricted.py'
p76
sS'dump'
p77
(dp78
S'environment'
p79
S"{'A': <class 'gluon.html.A'>, 'ANY_OF': <class 'gluon.validators.ANY_OF'>, 'ASSIGNJS': <function ASSIGNJS>, 'AppConfig': <function AppConfig>, 'Auth': <class 'gluon.tools.Auth'>, 'B': <class 'gluon.html.B'>, 'BEAUTIFY': <class 'gluon.html.BEAUTIFY'>, 'BODY': <class 'gluon.html.BODY'>, 'BR': <class 'gluon.html.BR'>, 'BUTTON': <class 'gluon.html.BUTTON'>, ...}"
p80
sS'ccode'
p81
S'<code object <module> at 0x11b6a3130, file "/Use...cations/SlugDash/controllers/default.py", line 8>'
p82
ssS'lnum'
p83
I227
sS'lines'
p84
(dp85
I224
S'            ccode = code'
p86
sI225
S'        else:'
p87
sI226
S'            ccode = compile2(code, layer)'
p88
sI227
S'        exec ccode in environment'
p89
sI228
S'    except HTTP:'
p90
sI229
S'        raise'
p91
sI230
S'    except RestrictedError:'
p92
sI231
S'        # do not encapsulate (obfuscate) the original RestrictedError'
p93
sI222
S'    try:'
p94
sI223
S'        if isinstance(code, types.CodeType):'
p95
ssS'call'
p96
S"(code='# -*- coding: utf-8 -*-\\n# this file is released ...)\\n\\nresponse._vars=response._caller(get_products)\\n', environment={'A': <class 'gluon.html.A'>, 'ANY_OF': <class 'gluon.validators.ANY_OF'>, 'ASSIGNJS': <function ASSIGNJS>, 'AppConfig': <function AppConfig>, 'Auth': <class 'gluon.tools.Auth'>, 'B': <class 'gluon.html.B'>, 'BEAUTIFY': <class 'gluon.html.BEAUTIFY'>, 'BODY': <class 'gluon.html.BODY'>, 'BR': <class 'gluon.html.BR'>, 'BUTTON': <class 'gluon.html.BUTTON'>, ...}, layer='/Users/dylansuchesk/Desktop/Ry3on_Orange_Folder/...b2py/applications/SlugDash/controllers/default.py')"
p97
sS'func'
p98
S'restricted'
p99
sa(dp100
g75
S'/Users/dylansuchesk/Desktop/Ry3on_Orange_Folder/college/cmps/cmps183/web2py/applications/SlugDash/controllers/default.py'
p101
sg77
(dp102
sg83
I217
sg84
(dp103
I206
S''
sI207
S''
sI208
S'def call():'
p104
sI209
S'    """'
p105
sI210
S'    exposes services. for example:'
p106
sI211
S'    http://..../[app]/default/call/jsonrpc'
p107
sI212
S'    decorate with @services.jsonrpc the functions to expose'
p108
sI213
S'    supports xml, json, xmlrpc, jsonrpc, amfrpc, rss, csv'
p109
sI214
S'    """'
p110
sI215
S'    return service()'
p111
ssg96
S'()'
p112
sg98
S'<module>'
p113
sa(dp114
g75
S'/Users/dylansuchesk/Desktop/Ry3on_Orange_Folder/college/cmps/cmps183/web2py/gluon/globals.py'
p115
sg77
(dp116
S'self'
p117
S'undefined'
p118
sS'f'
S'<function get_products>'
p119
ssg83
I417
sg84
(dp120
I416
S'        self._vars = None'
p121
sI417
S'        self._caller = lambda f: f()'
p122
sI418
S'        self._view_environment = None'
p123
sI419
S'        self._custom_commit = None'
p124
sI420
S'        self._custom_rollback = None'
p125
sI421
S"        self.generic_patterns = ['*']"
p126
sI412
S"        self.flash = ''            # used by the default view layout"
p127
sI413
S'        self.meta = Storage()      # used by web2py_ajax.html'
p128
sI414
S'        self.menu = []             # used by the default view layout'
p129
sI415
S'        self.files = []            # used by web2py_ajax.html'
p130
ssg96
S'(f=<function get_products>)'
p131
sg98
S'<lambda>'
p132
sa(dp133
g75
S'/Users/dylansuchesk/Desktop/Ry3on_Orange_Folder/college/cmps/cmps183/web2py/applications/SlugDash/controllers/default.py'
p134
sg77
(dp135
S'requests.get'
p136
S'<function get>'
p137
sS'requests'
p138
S"<module 'requests' from '/Library/Frameworks/Pyt...b/python2.7/site-packages/requests/__init__.pyc'>"
p139
sS'r'
g118
ssg83
I60
sg84
(dp140
I64
S"        p['desired_quantity'] = min(1, p['quantity'])"
p141
sI55
S''
sI56
S''
sI57
S'# Fetch products from server'
p142
sI58
S'def get_products():'
p143
sI59
S'    import requests'
p144
sI60
S"    r = requests.get('http://luca-teaching.appspot.com/get_products')"
p145
sI61
S'    result = r.json()'
p146
sI62
S"    products = result['products']"
p147
sI63
S'    for p in products:'
p148
ssg96
S'()'
p149
sg98
S'get_products'
p150
sa(dp151
g75
S'/Library/Frameworks/Python.framework/Versions/2.7/lib/python2.7/site-packages/requests/api.py'
p152
sg77
(dp153
S'global request'
p154
S'<function request>'
p155
sS'url'
p156
S"'http://luca-teaching.appspot.com/get_products'"
p157
sS'params'
p158
S'None'
p159
sS'kwargs'
p160
S"{'allow_redirects': True}"
p161
ssg83
I70
sg84
(dp162
I65
S'    :return: :class:`Response <Response>` object'
p163
sI66
S'    :rtype: requests.Response'
p164
sI67
S'    """'
p165
sI68
S''
sI69
S"    kwargs.setdefault('allow_redirects', True)"
p166
sI70
S"    return request('get', url, params=params, **kwargs)"
p167
sI71
S''
sI72
S''
sI73
S'def options(url, **kwargs):'
p168
sI74
S'    """Sends a OPTIONS request.'
p169
ssg96
S"(url='http://luca-teaching.appspot.com/get_products', params=None, **kwargs={'allow_redirects': True})"
p170
sg98
S'get'
p171
sa(dp172
g75
S'/Library/Frameworks/Python.framework/Versions/2.7/lib/python2.7/site-packages/requests/api.py'
p173
sg77
(dp174
S'url'
p175
S"'http://luca-teaching.appspot.com/get_products'"
p176
sS'session'
p177
S'<requests.sessions.Session object>'
p178
sS'method'
p179
S"'get'"
p180
sS'session.request'
p181
S'<bound method Session.request of <requests.sessions.Session object>>'
p182
sS'kwargs'
p183
S"{'allow_redirects': True, 'params': None}"
p184
ssg83
I56
sg84
(dp185
I51
S''
sI52
S"    # By using the 'with' statement we are sure the session is closed, thus we"
p186
sI53
S'    # avoid leaving sockets open which can trigger a ResourceWarning in some'
p187
sI54
S'    # cases, and look like a memory leak in others.'
p188
sI55
S'    with sessions.Session() as session:'
p189
sI56
S'        return session.request(method=method, url=url, **kwargs)'
p190
sI57
S''
sI58
S''
sI59
S'def get(url, params=None, **kwargs):'
p191
sI60
S'    """Sends a GET request.'
p192
ssg96
S"(method='get', url='http://luca-teaching.appspot.com/get_products', **kwargs={'allow_redirects': True, 'params': None})"
p193
sg98
g58
sa(dp194
g75
S'/Library/Frameworks/Python.framework/Versions/2.7/lib/python2.7/site-packages/requests/sessions.py'
p195
sg77
(dp196
S'resp'
p197
g118
sS'send_kwargs'
p198
S"{'allow_redirects': True, 'cert': None, 'proxies': OrderedDict(), 'stream': False, 'timeout': None, 'verify': '/usr/local/etc/openssl/certs/cacert.pem'}"
p199
sS'prep'
p200
S'<PreparedRequest [GET]>'
p201
sS'self'
p202
S'<requests.sessions.Session object>'
p203
sS'self.send'
p204
S'<bound method Session.send of <requests.sessions.Session object>>'
p205
ssg83
I488
sg84
(dp206
I483
S'        send_kwargs = {'
p207
sI484
S"            'timeout': timeout,"
p208
sI485
S"            'allow_redirects': allow_redirects,"
p209
sI486
S'        }'
p210
sI487
S'        send_kwargs.update(settings)'
p211
sI488
S'        resp = self.send(prep, **send_kwargs)'
p212
sI489
S''
sI490
S'        return resp'
p213
sI491
S''
sI492
S'    def get(self, url, **kwargs):'
p214
ssg96
S"(self=<requests.sessions.Session object>, method='get', url='http://luca-teaching.appspot.com/get_products', params=None, data=None, headers=None, cookies=None, files=None, auth=None, timeout=None, allow_redirects=True, proxies={}, hooks=None, stream=None, verify=None, cert=None, json=None)"
p215
sg98
g58
sa(dp216
g75
S'/Library/Frameworks/Python.framework/Versions/2.7/lib/python2.7/site-packages/requests/sessions.py'
p217
sg77
(dp218
S'request'
p219
S'<PreparedRequest [GET]>'
p220
sS'adapter'
p221
S'<requests.adapters.HTTPAdapter object>'
p222
sS'r'
g118
sS'adapter.send'
p223
S'<bound method HTTPAdapter.send of <requests.adapters.HTTPAdapter object>>'
p224
sS'kwargs'
p225
S"{'cert': None, 'proxies': OrderedDict(), 'stream': False, 'timeout': None, 'verify': '/usr/local/etc/openssl/certs/cacert.pem'}"
p226
ssg83
I609
sg84
(dp227
I608
S'        # Send the request'
p228
sI609
S'        r = adapter.send(request, **kwargs)'
p229
sI610
S''
sI611
S'        # Total elapsed time of the request (approximately)'
p230
sI612
S'        r.elapsed = datetime.utcnow() - start'
p231
sI613
S''
sI604
S''
sI605
S'        # Start time (approximately) of the request'
p232
sI606
S'        start = datetime.utcnow()'
p233
sI607
S''
ssg96
S"(self=<requests.sessions.Session object>, request=<PreparedRequest [GET]>, **kwargs={'cert': None, 'proxies': OrderedDict(), 'stream': False, 'timeout': None, 'verify': '/usr/local/etc/openssl/certs/cacert.pem'})"
p234
sg98
S'send'
p235
sa(dp236
g75
S'/Library/Frameworks/Python.framework/Versions/2.7/lib/python2.7/site-packages/requests/adapters.py'
p237
sg77
(dp238
S'global ConnectionError'
p239
S"<class 'requests.exceptions.ConnectionError'>"
p240
sS'e'
S'MaxRetryError("HTTPConnectionPool(host=\'luca-tea...dename nor servname provided, or not known\',))",)'
p241
sS'request'
p242
S'<PreparedRequest [GET]>'
p243
ssg83
I487
sg84
(dp244
I482
S'                raise RetryError(e, request=request)'
p245
sI483
S''
sI484
S'            if isinstance(e.reason, _ProxyError):'
p246
sI485
S'                raise ProxyError(e, request=request)'
p247
sI486
S''
sI487
S'            raise ConnectionError(e, request=request)'
p248
sI488
S''
sI489
S'        except ClosedPoolError as e:'
p249
sI490
S'            raise ConnectionError(e, request=request)'
p250
sI491
S''
ssg96
S"(self=<requests.adapters.HTTPAdapter object>, request=<PreparedRequest [GET]>, stream=False, timeout=<requests.packages.urllib3.util.timeout.Timeout object>, verify='/usr/local/etc/openssl/certs/cacert.pem', cert=None, proxies=OrderedDict())"
p251
sg98
g235
sasS'pyver'
p252
S'Python 2.7.12: /Library/Frameworks/Python.framework/Versions/2.7/Resources/Python.app/Contents/MacOS/Python (prefix: /Library/Frameworks/Python.framework/Versions/2.7)'
p253
sS'session'
p254
g70
(S's\xbf\x00\x00\x00<div><table><tr><td style="font-weight:bold;vertical-align:top;">hmac_key</td><td style="vertical-align:top;">:</td><td><div>5867885c-91ed-4031-8036-068e23986521</div></td></tr></table></div>'
tRp255
sS'etype'
p256
S"<class 'requests.exceptions.ConnectionError'>"
p257
sS'date'
p258
S'Fri Dec  2 21:08:35 2016'
p259
sg54
g70
(S's\x19(\x00\x00<div><table><tr><td style="font-weight:bold;vertical-align:top;">body</td><td style="vertical-align:top;">:</td><td><div>&lt;cStringIO.StringO object at 0x11b78e458&gt;</div></td></tr><tr><td style="font-weight:bold;vertical-align:top;">cookies</td><td style="vertical-align:top;">:</td><td><div><table><tr><td style="font-weight:bold;vertical-align:top;">session_id_slugdash</td><td style="vertical-align:top;">:</td><td><div>28:7945adff-bc18-4c3c-b4d1-6744acccd957<table><tr><td style="font-weight:bold;vertical-align:top;">comment</td><td style="vertical-align:top;">:</td><td><div></div></td></tr><tr><td style="font-weight:bold;vertical-align:top;">domain</td><td style="vertical-align:top;">:</td><td><div></div></td></tr><tr><td style="font-weight:bold;vertical-align:top;">expires</td><td style="vertical-align:top;">:</td><td><div></div></td></tr><tr><td style="font-weight:bold;vertical-align:top;">httponly</td><td style="vertical-align:top;">:</td><td><div></div></td></tr><tr><td style="font-weight:bold;vertical-align:top;">max-age</td><td style="vertical-align:top;">:</td><td><div></div></td></tr><tr><td style="font-weight:bold;vertical-align:top;">path</td><td style="vertical-align:top;">:</td><td><div>/</div></td></tr><tr><td style="font-weight:bold;vertical-align:top;">secure</td><td style="vertical-align:top;">:</td><td><div></div></td></tr><tr><td style="font-weight:bold;vertical-align:top;">version</td><td style="vertical-align:top;">:</td><td><div></div></td></tr></table></div></td></tr></table></div></td></tr><tr><td style="font-weight:bold;vertical-align:top;">delimiters</td><td style="vertical-align:top;">:</td><td><div><table><tr><td><div>{{</div></td></tr><tr><td><div>}}</div></td></tr></table></div></td></tr><tr><td style="font-weight:bold;vertical-align:top;">files</td><td style="vertical-align:top;">:</td><td><div><table></table></div></td></tr><tr><td style="font-weight:bold;vertical-align:top;">flash</td><td style="vertical-align:top;">:</td><td><div></div></td></tr><tr><td style="font-weight:bold;vertical-align:top;">form_label_separator</td><td style="vertical-align:top;">:</td><td><div></div></td></tr><tr><td style="font-weight:bold;vertical-align:top;">formstyle</td><td style="vertical-align:top;">:</td><td><div>bootstrap3_inline</div></td></tr><tr><td style="font-weight:bold;vertical-align:top;">generic_patterns</td><td style="vertical-align:top;">:</td><td><div><table><tr><td><div>*</div></td></tr></table></div></td></tr><tr><td style="font-weight:bold;vertical-align:top;">google_analytics_id</td><td style="vertical-align:top;">:</td><td><div>None</div></td></tr><tr><td style="font-weight:bold;vertical-align:top;">headers</td><td style="vertical-align:top;">:</td><td><div><table><tr><td style="font-weight:bold;vertical-align:top;">X-Powered-By</td><td style="vertical-align:top;">:</td><td><div>web2py</div></td></tr></table></div></td></tr><tr><td style="font-weight:bold;vertical-align:top;">logo</td><td style="vertical-align:top;">:</td><td><div><a class="navbar-brand" href="http://www.web2py.com/" id="web2py-logo"><b>web<span>2</span>py</b>&trade;&nbsp;</a></div></td></tr><tr><td style="font-weight:bold;vertical-align:top;">menu</td><td style="vertical-align:top;">:</td><td><div><table><tr><td><div><table><tr><td><div>Home</div></td></tr><tr><td><div>False</div></td></tr><tr><td><div>/SlugDash/default/index</div></td></tr><tr><td><div><table></table></div></td></tr></table></div></td></tr><tr><td><div><table><tr><td><div>View Orders</div></td></tr><tr><td><div>False</div></td></tr><tr><td><div>/SlugDash/default/view_orders</div></td></tr></table></div></td></tr><tr><td><div><table><tr><td><div>Manage Products</div></td></tr><tr><td><div>False</div></td></tr><tr><td><div>/SlugDash/default/product_management</div></td></tr></table></div></td></tr><tr><td><div><table><tr><td><div>My Sites</div></td></tr><tr><td><div>False</div></td></tr><tr><td><div>/admin/default/site</div></td></tr></table></div></td></tr><tr><td><div><table><tr><td><div>This App</div></td></tr><tr><td><div>False</div></td></tr><tr><td><div>#</div></td></tr><tr><td><div><table><tr><td><div><table><tr><td><div>Design</div></td></tr><tr><td><div>False</div></td></tr><tr><td><div>/admin/default/design/SlugDash</div></td></tr></table></div></td></tr><tr><td><div><li class="divider"></li></div></td></tr><tr><td><div><table><tr><td><div>Controller</div></td></tr><tr><td><div>False</div></td></tr><tr><td><div>/admin/default/edit/SlugDash/controllers/default.py</div></td></tr></table></div></td></tr><tr><td><div><table><tr><td><div>View</div></td></tr><tr><td><div>False</div></td></tr><tr><td><div>/admin/default/edit/SlugDash/views/default/get_products.html</div></td></tr></table></div></td></tr><tr><td><div><table><tr><td><div>DB Model</div></td></tr><tr><td><div>False</div></td></tr><tr><td><div>/admin/default/edit/SlugDash/models/db.py</div></td></tr></table></div></td></tr><tr><td><div><table><tr><td><div>Menu Model</div></td></tr><tr><td><div>False</div></td></tr><tr><td><div>/admin/default/edit/SlugDash/models/menu.py</div></td></tr></table></div></td></tr><tr><td><div><table><tr><td><div>Config.ini</div></td></tr><tr><td><div>False</div></td></tr><tr><td><div>/admin/default/edit/SlugDash/private/appconfig.ini</div></td></tr></table></div></td></tr><tr><td><div><table><tr><td><div>Layout</div></td></tr><tr><td><div>False</div></td></tr><tr><td><div>/admin/default/edit/SlugDash/views/layout.html</div></td></tr></table></div></td></tr><tr><td><div><table><tr><td><div>Stylesheet</div></td></tr><tr><td><div>False</div></td></tr><tr><td><div>/admin/default/edit/SlugDash/static/css/web2py-bootstrap3.css</div></td></tr></table></div></td></tr><tr><td><div><table><tr><td><div>Database</div></td></tr><tr><td><div>False</div></td></tr><tr><td><div>/SlugDash/appadmin/index</div></td></tr></table></div></td></tr><tr><td><div><table><tr><td><div>Errors</div></td></tr><tr><td><div>False</div></td></tr><tr><td><div>/admin/default/errors/SlugDash</div></td></tr></table></div></td></tr><tr><td><div><table><tr><td><div>About</div></td></tr><tr><td><div>False</div></td></tr><tr><td><div>/admin/default/about/SlugDash</div></td></tr></table></div></td></tr></table></div></td></tr></table></div></td></tr></table></div></td></tr><tr><td style="font-weight:bold;vertical-align:top;">meta</td><td style="vertical-align:top;">:</td><td><div><table><tr><td style="font-weight:bold;vertical-align:top;">author</td><td style="vertical-align:top;">:</td><td><div>Your Name &lt;you@example.com&gt;</div></td></tr><tr><td style="font-weight:bold;vertical-align:top;">description</td><td style="vertical-align:top;">:</td><td><div>a cool new app</div></td></tr><tr><td style="font-weight:bold;vertical-align:top;">generator</td><td style="vertical-align:top;">:</td><td><div>Web2py Web Framework</div></td></tr><tr><td style="font-weight:bold;vertical-align:top;">keywords</td><td style="vertical-align:top;">:</td><td><div><table><tr><td><div>web2py</div></td></tr><tr><td><div>python</div></td></tr><tr><td><div>framework</div></td></tr></table></div></td></tr></table></div></td></tr><tr><td style="font-weight:bold;vertical-align:top;">models_to_run</td><td style="vertical-align:top;">:</td><td><div><table><tr><td><div>^\\w+\\.py$</div></td></tr><tr><td><div>^default/\\w+\\.py$</div></td></tr><tr><td><div>^default/get_products/\\w+\\.py$</div></td></tr></table></div></td></tr><tr><td style="font-weight:bold;vertical-align:top;">postprocessing</td><td style="vertical-align:top;">:</td><td><div><table></table></div></td></tr><tr><td style="font-weight:bold;vertical-align:top;">session_client</td><td style="vertical-align:top;">:</td><td><div>127.0.0.1</div></td></tr><tr><td style="font-weight:bold;vertical-align:top;">session_cookie_compression_level</td><td style="vertical-align:top;">:</td><td><div>None</div></td></tr><tr><td style="font-weight:bold;vertical-align:top;">session_cookie_expires</td><td style="vertical-align:top;">:</td><td><div>None</div></td></tr><tr><td style="font-weight:bold;vertical-align:top;">session_data_name</td><td style="vertical-align:top;">:</td><td><div>session_data_slugdash</div></td></tr><tr><td style="font-weight:bold;vertical-align:top;">session_db_record_id</td><td style="vertical-align:top;">:</td><td><div>28L</div></td></tr><tr><td style="font-weight:bold;vertical-align:top;">session_db_table</td><td style="vertical-align:top;">:</td><td><div>&lt;Table web2py_session_SlugDash (id, locked, client_ip, created_datetime, modified_datetime, unique_key, session_data)&gt;</div></td></tr><tr><td style="font-weight:bold;vertical-align:top;">session_db_unique_key</td><td style="vertical-align:top;">:</td><td><div>7945adff-bc18-4c3c-b4d1-6744acccd957</div></td></tr><tr><td style="font-weight:bold;vertical-align:top;">session_hash</td><td style="vertical-align:top;">:</td><td><div>b6df4eda0ce708a7ab19af3e70a2bb33</div></td></tr><tr><td style="font-weight:bold;vertical-align:top;">session_id</td><td style="vertical-align:top;">:</td><td><div>28:7945adff-bc18-4c3c-b4d1-6744acccd957</div></td></tr><tr><td style="font-weight:bold;vertical-align:top;">session_id_name</td><td style="vertical-align:top;">:</td><td><div>session_id_slugdash</div></td></tr><tr><td style="font-weight:bold;vertical-align:top;">session_masterapp</td><td style="vertical-align:top;">:</td><td><div>SlugDash</div></td></tr><tr><td style="font-weight:bold;vertical-align:top;">session_new</td><td style="vertical-align:top;">:</td><td><div>False</div></td></tr><tr><td style="font-weight:bold;vertical-align:top;">session_storage_type</td><td style="vertical-align:top;">:</td><td><div>db</div></td></tr><tr><td style="font-weight:bold;vertical-align:top;">status</td><td style="vertical-align:top;">:</td><td><div>200</div></td></tr><tr><td style="font-weight:bold;vertical-align:top;">subtitle</td><td style="vertical-align:top;">:</td><td><div></div></td></tr><tr><td style="font-weight:bold;vertical-align:top;">title</td><td style="vertical-align:top;">:</td><td><div>Slugdash</div></td></tr><tr><td style="font-weight:bold;vertical-align:top;">view</td><td style="vertical-align:top;">:</td><td><div>default/get_products.html</div></td></tr></table></div>'
tRp260
sS'locals'
p261
(dp262
S'proxies'
p263
S'OrderedDict()'
p264
sS'e'
S'MaxRetryError("HTTPConnectionPool(host=\'luca-tea...dename nor servname provided, or not known\',))",)'
p265
sS'stream'
p266
S'False'
p267
sS'url'
p268
S"'/get_products'"
p269
sS'verify'
p270
S"'/usr/local/etc/openssl/certs/cacert.pem'"
p271
sS'self'
p272
S'<requests.adapters.HTTPAdapter object>'
p273
sg58
S'<PreparedRequest [GET]>'
p274
sS'cert'
p275
S'None'
p276
sS'timeout'
p277
S'<requests.packages.urllib3.util.timeout.Timeout object>'
p278
sS'chunked'
p279
g267
sS'conn'
p280
S'<requests.packages.urllib3.connectionpool.HTTPConnectionPool object>'
p281
sssS'traceback'
p282
S'Traceback (most recent call last):\n  File "/Users/dylansuchesk/Desktop/Ry3on_Orange_Folder/college/cmps/cmps183/web2py/gluon/restricted.py", line 227, in restricted\n    exec ccode in environment\n  File "/Users/dylansuchesk/Desktop/Ry3on_Orange_Folder/college/cmps/cmps183/web2py/applications/SlugDash/controllers/default.py", line 217, in <module>\n  File "/Users/dylansuchesk/Desktop/Ry3on_Orange_Folder/college/cmps/cmps183/web2py/gluon/globals.py", line 417, in <lambda>\n    self._caller = lambda f: f()\n  File "/Users/dylansuchesk/Desktop/Ry3on_Orange_Folder/college/cmps/cmps183/web2py/applications/SlugDash/controllers/default.py", line 60, in get_products\n    r = requests.get(\'http://luca-teaching.appspot.com/get_products\')\n  File "/Library/Frameworks/Python.framework/Versions/2.7/lib/python2.7/site-packages/requests/api.py", line 70, in get\n    return request(\'get\', url, params=params, **kwargs)\n  File "/Library/Frameworks/Python.framework/Versions/2.7/lib/python2.7/site-packages/requests/api.py", line 56, in request\n    return session.request(method=method, url=url, **kwargs)\n  File "/Library/Frameworks/Python.framework/Versions/2.7/lib/python2.7/site-packages/requests/sessions.py", line 488, in request\n    resp = self.send(prep, **send_kwargs)\n  File "/Library/Frameworks/Python.framework/Versions/2.7/lib/python2.7/site-packages/requests/sessions.py", line 609, in send\n    r = adapter.send(request, **kwargs)\n  File "/Library/Frameworks/Python.framework/Versions/2.7/lib/python2.7/site-packages/requests/adapters.py", line 487, in send\n    raise ConnectionError(e, request=request)\nConnectionError: HTTPConnectionPool(host=\'luca-teaching.appspot.com\', port=80): Max retries exceeded with url: /get_products (Caused by NewConnectionError(\'<requests.packages.urllib3.connection.HTTPConnection object at 0x11b6a2890>: Failed to establish a new connection: [Errno 8] nodename nor servname provided, or not known\',))\n'
p283
s.